
InitialInteractiveLoaderSM.elf:     file format elf32-littlearm


Disassembly of section .text:

00008000 <_start>:
    8000:	e30001d2 	movw	r0, #466	; 0x1d2
    8004:	e121f000 	msr	CPSR_c, r0
    8008:	e3a0d5fd 	mov	sp, #1061158912	; 0x3f400000
    800c:	e30001d1 	movw	r0, #465	; 0x1d1
    8010:	e121f000 	msr	CPSR_c, r0
    8014:	e3a0d5fe 	mov	sp, #1065353216	; 0x3f800000
    8018:	e30001d3 	movw	r0, #467	; 0x1d3
    801c:	e121f000 	msr	CPSR_c, r0
    8020:	e3a0d43f 	mov	sp, #1056964608	; 0x3f000000
    8024:	eb00002a 	bl	80d4 <main>

00008028 <hang>:
    8028:	eafffffe 	b	8028 <hang>

0000802c <GOTO>:
    802c:	e12fff30 	blx	r0
    8030:	eafffffc 	b	8028 <hang>

00008034 <exception_vectors>:
    8034:	e59ff018 	ldr	pc, [pc, #24]	; 8054 <exception_handlers_table>
    8038:	e59ff018 	ldr	pc, [pc, #24]	; 8058 <undefined_irq_entry>
    803c:	e59ff018 	ldr	pc, [pc, #24]	; 805c <swi_irq_entry>
    8040:	e59ff018 	ldr	pc, [pc, #24]	; 8060 <prefetch_irq_entry>
    8044:	e59ff018 	ldr	pc, [pc, #24]	; 8064 <data_irq_entry>
    8048:	e59ff018 	ldr	pc, [pc, #24]	; 8068 <unused_irq_entry>
    804c:	e59ff018 	ldr	pc, [pc, #24]	; 806c <irq_entry>
    8050:	e59ff018 	ldr	pc, [pc, #24]	; 8070 <fiq_entry>

00008054 <exception_handlers_table>:
    8054:	000080d0 	ldrdeq	r8, [r0], -r0

00008058 <undefined_irq_entry>:
    8058:	000080d0 	ldrdeq	r8, [r0], -r0

0000805c <swi_irq_entry>:
    805c:	000080b0 	strheq	r8, [r0], -r0

00008060 <prefetch_irq_entry>:
    8060:	000080d0 	ldrdeq	r8, [r0], -r0

00008064 <data_irq_entry>:
    8064:	000080d0 	ldrdeq	r8, [r0], -r0

00008068 <unused_irq_entry>:
    8068:	000080d0 	ldrdeq	r8, [r0], -r0

0000806c <irq_entry>:
    806c:	0000808c 	andeq	r8, r0, ip, lsl #1

00008070 <fiq_entry>:
    8070:	000080d0 	ldrdeq	r8, [r0], -r0

00008074 <enable_irq>:
    8074:	f1080080 	cpsie	i
    8078:	e12fff1e 	bx	lr

0000807c <disable_irq>:
    807c:	f10c0080 	cpsid	i
    8080:	e12fff1e 	bx	lr

00008084 <get_sp>:
    8084:	e1a0000d 	mov	r0, sp
    8088:	e12fff1e 	bx	lr

0000808c <irq_handler>:
    808c:	e24ee004 	sub	lr, lr, #4
    8090:	f96d0513 	srsdb	sp!, #19
    8094:	f1020013 	cps	#19
    8098:	e92d5fff 	push	{r0, r1, r2, r3, r4, r5, r6, r7, r8, r9, sl, fp, ip, lr}
    809c:	e1a0000d 	mov	r0, sp
    80a0:	eb000221 	bl	892c <isr>
    80a4:	e1a0d000 	mov	sp, r0
    80a8:	e8bd5fff 	pop	{r0, r1, r2, r3, r4, r5, r6, r7, r8, r9, sl, fp, ip, lr}
    80ac:	f8bd0a00 	rfeia	sp!

000080b0 <swi_handler>:
    80b0:	f96d0513 	srsdb	sp!, #19
    80b4:	e92d5fff 	push	{r0, r1, r2, r3, r4, r5, r6, r7, r8, r9, sl, fp, ip, lr}
    80b8:	e3a00010 	mov	r0, #16
    80bc:	e1a0100d 	mov	r1, sp
    80c0:	eb000214 	bl	8918 <processInterrupt>
    80c4:	e1a0d000 	mov	sp, r0
    80c8:	e8bd5fff 	pop	{r0, r1, r2, r3, r4, r5, r6, r7, r8, r9, sl, fp, ip, lr}
    80cc:	f8bd0a00 	rfeia	sp!

000080d0 <data_abort_handler>:
    80d0:	eafffffe 	b	80d0 <data_abort_handler>

000080d4 <main>:
    80d4:	e30a1d8c 	movw	r1, #44428	; 0xad8c
    80d8:	e30a2d90 	movw	r2, #44432	; 0xad90
    80dc:	e92d4010 	push	{r4, lr}
    80e0:	e30a3d94 	movw	r3, #44436	; 0xad94
    80e4:	e3401000 	movt	r1, #0
    80e8:	e24dd068 	sub	sp, sp, #104	; 0x68
    80ec:	e3402000 	movt	r2, #0
    80f0:	e28dc004 	add	ip, sp, #4
    80f4:	e3403000 	movt	r3, #0
    80f8:	e28d0014 	add	r0, sp, #20
    80fc:	e581c000 	str	ip, [r1]
    8100:	e28d1024 	add	r1, sp, #36	; 0x24
    8104:	e5820000 	str	r0, [r2]
    8108:	e3a02004 	mov	r2, #4
    810c:	e5831000 	str	r1, [r3]
    8110:	e3a03001 	mov	r3, #1
    8114:	e58d2008 	str	r2, [sp, #8]
    8118:	e3a01015 	mov	r1, #21
    811c:	e58d300c 	str	r3, [sp, #12]
    8120:	e3a02902 	mov	r2, #32768	; 0x8000
    8124:	e58d3018 	str	r3, [sp, #24]
    8128:	e3a0cb01 	mov	ip, #1024	; 0x400
    812c:	e58d1004 	str	r1, [sp, #4]
    8130:	e3a03000 	mov	r3, #0
    8134:	e58d2010 	str	r2, [sp, #16]
    8138:	e3a01006 	mov	r1, #6
    813c:	e58d301c 	str	r3, [sp, #28]
    8140:	e3a02501 	mov	r2, #4194304	; 0x400000
    8144:	e58d3014 	str	r3, [sp, #20]
    8148:	e3a00002 	mov	r0, #2
    814c:	e58d302c 	str	r3, [sp, #44]	; 0x2c
    8150:	e28d4034 	add	r4, sp, #52	; 0x34
    8154:	e58dc020 	str	ip, [sp, #32]
    8158:	e58d1024 	str	r1, [sp, #36]	; 0x24
    815c:	e58d2030 	str	r2, [sp, #48]	; 0x30
    8160:	e58d0028 	str	r0, [sp, #40]	; 0x28
    8164:	eb0001a5 	bl	8800 <irq_vectors_setup>
    8168:	e3a00ffa 	mov	r0, #1000	; 0x3e8
    816c:	eb000055 	bl	82c8 <arm_timer_setup>
    8170:	eb000067 	bl	8314 <led_setup>
    8174:	eb00012e 	bl	8634 <uart_init>
    8178:	ebffffbd 	bl	8074 <enable_irq>
    817c:	e30a0924 	movw	r0, #43300	; 0xa924
    8180:	e3400000 	movt	r0, #0
    8184:	eb0000f0 	bl	854c <sendString>
    8188:	e30a0960 	movw	r0, #43360	; 0xa960
    818c:	e3400000 	movt	r0, #0
    8190:	eb0000ed 	bl	854c <sendString>
    8194:	e30a097c 	movw	r0, #43388	; 0xa97c
    8198:	e3400000 	movt	r0, #0
    819c:	eb0000ea 	bl	854c <sendString>
    81a0:	e30a0988 	movw	r0, #43400	; 0xa988
    81a4:	e3400000 	movt	r0, #0
    81a8:	eb0000e7 	bl	854c <sendString>
    81ac:	e30a09d4 	movw	r0, #43476	; 0xa9d4
    81b0:	e3400000 	movt	r0, #0
    81b4:	eb0000e4 	bl	854c <sendString>
    81b8:	e30a0a08 	movw	r0, #43528	; 0xaa08
    81bc:	e3400000 	movt	r0, #0
    81c0:	eb0000e1 	bl	854c <sendString>
    81c4:	e30a0a48 	movw	r0, #43592	; 0xaa48
    81c8:	e3400000 	movt	r0, #0
    81cc:	eb0000de 	bl	854c <sendString>
    81d0:	e30a0a80 	movw	r0, #43648	; 0xaa80
    81d4:	e3400000 	movt	r0, #0
    81d8:	eb0000db 	bl	854c <sendString>
    81dc:	e30a0ac4 	movw	r0, #43716	; 0xaac4
    81e0:	e3400000 	movt	r0, #0
    81e4:	eb0000d8 	bl	854c <sendString>
    81e8:	e30a0b0c 	movw	r0, #43788	; 0xab0c
    81ec:	e3400000 	movt	r0, #0
    81f0:	eb0000d5 	bl	854c <sendString>
    81f4:	e30a0b30 	movw	r0, #43824	; 0xab30
    81f8:	e3400000 	movt	r0, #0
    81fc:	eb0000d2 	bl	854c <sendString>
    8200:	e30a0b5c 	movw	r0, #43868	; 0xab5c
    8204:	e3400000 	movt	r0, #0
    8208:	eb0000cf 	bl	854c <sendString>
    820c:	e1a00004 	mov	r0, r4
    8210:	eb0005e3 	bl	99a4 <_ZN26InitialInteractiveLoaderSMC1Ev>
    8214:	eb0000f6 	bl	85f4 <read_rx_buffer>
    8218:	e5cd0003 	strb	r0, [sp, #3]
    821c:	eb0000a8 	bl	84c4 <uart_send>
    8220:	e59d3038 	ldr	r3, [sp, #56]	; 0x38
    8224:	e3a01001 	mov	r1, #1
    8228:	e3130001 	tst	r3, #1
    822c:	e08400c3 	add	r0, r4, r3, asr #1
    8230:	179420c3 	ldrne	r2, [r4, r3, asr #1]
    8234:	159d3034 	ldrne	r3, [sp, #52]	; 0x34
    8238:	059d3034 	ldreq	r3, [sp, #52]	; 0x34
    823c:	17923003 	ldrne	r3, [r2, r3]
    8240:	e28d2003 	add	r2, sp, #3
    8244:	e12fff33 	blx	r3
    8248:	e3500000 	cmp	r0, #0
    824c:	dafffff0 	ble	8214 <main+0x140>
    8250:	e3a00000 	mov	r0, #0
    8254:	e28dd068 	add	sp, sp, #104	; 0x68
    8258:	e8bd8010 	pop	{r4, pc}

0000825c <_GLOBAL__sub_I_out>:
    825c:	e30a3d20 	movw	r3, #44320	; 0xad20
    8260:	e3091f78 	movw	r1, #40824	; 0x9f78
    8264:	e3403000 	movt	r3, #0
    8268:	e3a02000 	mov	r2, #0
    826c:	e3401000 	movt	r1, #0
    8270:	e8830006 	stm	r3, {r1, r2}
    8274:	e5832008 	str	r2, [r3, #8]
    8278:	e5832010 	str	r2, [r3, #16]
    827c:	e5832014 	str	r2, [r3, #20]
    8280:	e583200c 	str	r2, [r3, #12]
    8284:	e12fff1e 	bx	lr

00008288 <sys_timer_setup>:
    8288:	e30a3c68 	movw	r3, #44136	; 0xac68
    828c:	e3a02002 	mov	r2, #2
    8290:	e3403000 	movt	r3, #0
    8294:	e52d4004 	push	{r4}		; (str r4, [sp, #-4]!)
    8298:	e5931004 	ldr	r1, [r3, #4]
    829c:	e593c000 	ldr	ip, [r3]
    82a0:	e5914000 	ldr	r4, [r1]
    82a4:	e5930008 	ldr	r0, [r3, #8]
    82a8:	e593100c 	ldr	r1, [r3, #12]
    82ac:	e284393d 	add	r3, r4, #999424	; 0xf4000
    82b0:	e49d4004 	pop	{r4}		; (ldr r4, [sp], #4)
    82b4:	e2833d09 	add	r3, r3, #576	; 0x240
    82b8:	e58c3000 	str	r3, [ip]
    82bc:	e5802000 	str	r2, [r0]
    82c0:	e5812000 	str	r2, [r1]
    82c4:	e12fff1e 	bx	lr

000082c8 <arm_timer_setup>:
    82c8:	e92d00f0 	push	{r4, r5, r6, r7}
    82cc:	e30a3c68 	movw	r3, #44136	; 0xac68
    82d0:	e0604280 	rsb	r4, r0, r0, lsl #5
    82d4:	e3a0c0a2 	mov	ip, #162	; 0xa2
    82d8:	e3403000 	movt	r3, #0
    82dc:	e3a0107c 	mov	r1, #124	; 0x7c
    82e0:	e0800104 	add	r0, r0, r4, lsl #2
    82e4:	e3a02001 	mov	r2, #1
    82e8:	e5937010 	ldr	r7, [r3, #16]
    82ec:	e5936014 	ldr	r6, [r3, #20]
    82f0:	e5935018 	ldr	r5, [r3, #24]
    82f4:	e593301c 	ldr	r3, [r3, #28]
    82f8:	e1a04200 	lsl	r4, r0, #4
    82fc:	e5874000 	str	r4, [r7]
    8300:	e586c000 	str	ip, [r6]
    8304:	e5851000 	str	r1, [r5]
    8308:	e5832000 	str	r2, [r3]
    830c:	e8bd00f0 	pop	{r4, r5, r6, r7}
    8310:	e12fff1e 	bx	lr

00008314 <led_setup>:
    8314:	e30a2d8c 	movw	r2, #44428	; 0xad8c
    8318:	e30a1c68 	movw	r1, #44136	; 0xac68
    831c:	e3402000 	movt	r2, #0
    8320:	e3401000 	movt	r1, #0
    8324:	e592c000 	ldr	ip, [r2]
    8328:	e5913020 	ldr	r3, [r1, #32]
    832c:	e59c0004 	ldr	r0, [ip, #4]
    8330:	e92d01f0 	push	{r4, r5, r6, r7, r8}
    8334:	e3a05007 	mov	r5, #7
    8338:	e7938100 	ldr	r8, [r3, r0, lsl #2]
    833c:	e3a04001 	mov	r4, #1
    8340:	e59c6000 	ldr	r6, [ip]
    8344:	e5917024 	ldr	r7, [r1, #36]	; 0x24
    8348:	e1c88615 	bic	r8, r8, r5, lsl r6
    834c:	e1886614 	orr	r6, r8, r4, lsl r6
    8350:	e7836100 	str	r6, [r3, r0, lsl #2]
    8354:	e5920004 	ldr	r0, [r2, #4]
    8358:	e59c6008 	ldr	r6, [ip, #8]
    835c:	e59cc00c 	ldr	ip, [ip, #12]
    8360:	e5911028 	ldr	r1, [r1, #40]	; 0x28
    8364:	e787c106 	str	ip, [r7, r6, lsl #2]
    8368:	e8901040 	ldm	r0, {r6, ip}
    836c:	e5922008 	ldr	r2, [r2, #8]
    8370:	e793710c 	ldr	r7, [r3, ip, lsl #2]
    8374:	e1c77615 	bic	r7, r7, r5, lsl r6
    8378:	e1876614 	orr	r6, r7, r4, lsl r6
    837c:	e783610c 	str	r6, [r3, ip, lsl #2]
    8380:	e590c008 	ldr	ip, [r0, #8]
    8384:	e590000c 	ldr	r0, [r0, #12]
    8388:	e781010c 	str	r0, [r1, ip, lsl #2]
    838c:	e5920004 	ldr	r0, [r2, #4]
    8390:	e592c000 	ldr	ip, [r2]
    8394:	e7936100 	ldr	r6, [r3, r0, lsl #2]
    8398:	e1c65c15 	bic	r5, r6, r5, lsl ip
    839c:	e1854c14 	orr	r4, r5, r4, lsl ip
    83a0:	e7834100 	str	r4, [r3, r0, lsl #2]
    83a4:	e5923008 	ldr	r3, [r2, #8]
    83a8:	e592200c 	ldr	r2, [r2, #12]
    83ac:	e8bd01f0 	pop	{r4, r5, r6, r7, r8}
    83b0:	e7812103 	str	r2, [r1, r3, lsl #2]
    83b4:	e12fff1e 	bx	lr

000083b8 <irq_handler_sys_timer>:
    83b8:	e30a3d8c 	movw	r3, #44428	; 0xad8c
    83bc:	e3403000 	movt	r3, #0
    83c0:	e593200c 	ldr	r2, [r3, #12]
    83c4:	e3120001 	tst	r2, #1
    83c8:	e2822001 	add	r2, r2, #1
    83cc:	e583200c 	str	r2, [r3, #12]
    83d0:	e5932000 	ldr	r2, [r3]
    83d4:	e30a3c68 	movw	r3, #44136	; 0xac68
    83d8:	e3403000 	movt	r3, #0
    83dc:	e5920008 	ldr	r0, [r2, #8]
    83e0:	05931024 	ldreq	r1, [r3, #36]	; 0x24
    83e4:	15931028 	ldrne	r1, [r3, #40]	; 0x28
    83e8:	e592200c 	ldr	r2, [r2, #12]
    83ec:	e7812100 	str	r2, [r1, r0, lsl #2]
    83f0:	e3a01002 	mov	r1, #2
    83f4:	e5932004 	ldr	r2, [r3, #4]
    83f8:	e5930000 	ldr	r0, [r3]
    83fc:	e592c000 	ldr	ip, [r2]
    8400:	e5932008 	ldr	r2, [r3, #8]
    8404:	e28c393d 	add	r3, ip, #999424	; 0xf4000
    8408:	e2833d09 	add	r3, r3, #576	; 0x240
    840c:	e5803000 	str	r3, [r0]
    8410:	e5821000 	str	r1, [r2]
    8414:	e12fff1e 	bx	lr

00008418 <irq_handler_arm_timer>:
    8418:	e30a3d8c 	movw	r3, #44428	; 0xad8c
    841c:	e3403000 	movt	r3, #0
    8420:	e5931010 	ldr	r1, [r3, #16]
    8424:	e1a02fa1 	lsr	r2, r1, #31
    8428:	e2810001 	add	r0, r1, #1
    842c:	e0811002 	add	r1, r1, r2
    8430:	e5830010 	str	r0, [r3, #16]
    8434:	e2011001 	and	r1, r1, #1
    8438:	e0512002 	subs	r2, r1, r2
    843c:	0a000009 	beq	8468 <irq_handler_arm_timer+0x50>
    8440:	e3520001 	cmp	r2, #1
    8444:	112fff1e 	bxne	lr
    8448:	e5932000 	ldr	r2, [r3]
    844c:	e30a3c68 	movw	r3, #44136	; 0xac68
    8450:	e3403000 	movt	r3, #0
    8454:	e5921008 	ldr	r1, [r2, #8]
    8458:	e5933028 	ldr	r3, [r3, #40]	; 0x28
    845c:	e592200c 	ldr	r2, [r2, #12]
    8460:	e7832101 	str	r2, [r3, r1, lsl #2]
    8464:	e12fff1e 	bx	lr
    8468:	e5932000 	ldr	r2, [r3]
    846c:	e30a3c68 	movw	r3, #44136	; 0xac68
    8470:	e3403000 	movt	r3, #0
    8474:	e5921008 	ldr	r1, [r2, #8]
    8478:	e5933024 	ldr	r3, [r3, #36]	; 0x24
    847c:	e592200c 	ldr	r2, [r2, #12]
    8480:	e7832101 	str	r2, [r3, r1, lsl #2]
    8484:	e12fff1e 	bx	lr

00008488 <uart_recv>:
    8488:	e30a1c68 	movw	r1, #44136	; 0xac68
    848c:	e3401000 	movt	r1, #0
    8490:	e591202c 	ldr	r2, [r1, #44]	; 0x2c
    8494:	ea000001 	b	84a0 <uart_recv+0x18>
    8498:	e3130001 	tst	r3, #1
    849c:	1a000004 	bne	84b4 <uart_recv+0x2c>
    84a0:	e5923000 	ldr	r3, [r2]
    84a4:	e3130010 	tst	r3, #16
    84a8:	0afffffa 	beq	8498 <uart_recv+0x10>
    84ac:	e3a0002a 	mov	r0, #42	; 0x2a
    84b0:	e12fff1e 	bx	lr
    84b4:	e5913030 	ldr	r3, [r1, #48]	; 0x30
    84b8:	e5930000 	ldr	r0, [r3]
    84bc:	e6ef0070 	uxtb	r0, r0
    84c0:	e12fff1e 	bx	lr

000084c4 <uart_send>:
    84c4:	e30a3d8c 	movw	r3, #44428	; 0xad8c
    84c8:	e30a2d4c 	movw	r2, #44364	; 0xad4c
    84cc:	e3403000 	movt	r3, #0
    84d0:	e92d0030 	push	{r4, r5}
    84d4:	e5931014 	ldr	r1, [r3, #20]
    84d8:	e3402001 	movt	r2, #1
    84dc:	e0831001 	add	r1, r3, r1
    84e0:	e5c10018 	strb	r0, [r1, #24]
    84e4:	e5931014 	ldr	r1, [r3, #20]
    84e8:	e2811001 	add	r1, r1, #1
    84ec:	e6ff1071 	uxth	r1, r1
    84f0:	e5831014 	str	r1, [r3, #20]
    84f4:	e5d21058 	ldrb	r1, [r2, #88]	; 0x58
    84f8:	e3510000 	cmp	r1, #0
    84fc:	1a000010 	bne	8544 <uart_send+0x80>
    8500:	e592005c 	ldr	r0, [r2, #92]	; 0x5c
    8504:	e30a1c68 	movw	r1, #44136	; 0xac68
    8508:	e3401000 	movt	r1, #0
    850c:	e3a0c007 	mov	ip, #7
    8510:	e0833000 	add	r3, r3, r0
    8514:	e3a00001 	mov	r0, #1
    8518:	e5914030 	ldr	r4, [r1, #48]	; 0x30
    851c:	e5d35018 	ldrb	r5, [r3, #24]
    8520:	e5913034 	ldr	r3, [r1, #52]	; 0x34
    8524:	e6ef1075 	uxtb	r1, r5
    8528:	e5841000 	str	r1, [r4]
    852c:	e592105c 	ldr	r1, [r2, #92]	; 0x5c
    8530:	e0811000 	add	r1, r1, r0
    8534:	e6ff1071 	uxth	r1, r1
    8538:	e582105c 	str	r1, [r2, #92]	; 0x5c
    853c:	e583c000 	str	ip, [r3]
    8540:	e5c20058 	strb	r0, [r2, #88]	; 0x58
    8544:	e8bd0030 	pop	{r4, r5}
    8548:	e12fff1e 	bx	lr

0000854c <sendString>:
    854c:	e52d4004 	push	{r4}		; (str r4, [sp, #-4]!)
    8550:	e5d02000 	ldrb	r2, [r0]
    8554:	e3520000 	cmp	r2, #0
    8558:	130a3d8c 	movwne	r3, #44428	; 0xad8c
    855c:	13403000 	movtne	r3, #0
    8560:	0a000009 	beq	858c <sendString+0x40>
    8564:	e5931014 	ldr	r1, [r3, #20]
    8568:	e0831001 	add	r1, r3, r1
    856c:	e5c12018 	strb	r2, [r1, #24]
    8570:	e5932014 	ldr	r2, [r3, #20]
    8574:	e2822001 	add	r2, r2, #1
    8578:	e6ff2072 	uxth	r2, r2
    857c:	e5832014 	str	r2, [r3, #20]
    8580:	e5f02001 	ldrb	r2, [r0, #1]!
    8584:	e3520000 	cmp	r2, #0
    8588:	1afffff5 	bne	8564 <sendString+0x18>
    858c:	e30a3d4c 	movw	r3, #44364	; 0xad4c
    8590:	e3403001 	movt	r3, #1
    8594:	e5d32058 	ldrb	r2, [r3, #88]	; 0x58
    8598:	e3520000 	cmp	r2, #0
    859c:	1a000012 	bne	85ec <sendString+0xa0>
    85a0:	e593005c 	ldr	r0, [r3, #92]	; 0x5c
    85a4:	e30a1d8c 	movw	r1, #44428	; 0xad8c
    85a8:	e3401000 	movt	r1, #0
    85ac:	e30a2c68 	movw	r2, #44136	; 0xac68
    85b0:	e0811000 	add	r1, r1, r0
    85b4:	e3a00001 	mov	r0, #1
    85b8:	e3402000 	movt	r2, #0
    85bc:	e3a0c007 	mov	ip, #7
    85c0:	e5d14018 	ldrb	r4, [r1, #24]
    85c4:	e5921030 	ldr	r1, [r2, #48]	; 0x30
    85c8:	e5922034 	ldr	r2, [r2, #52]	; 0x34
    85cc:	e6ef4074 	uxtb	r4, r4
    85d0:	e5814000 	str	r4, [r1]
    85d4:	e593105c 	ldr	r1, [r3, #92]	; 0x5c
    85d8:	e0811000 	add	r1, r1, r0
    85dc:	e6ff1071 	uxth	r1, r1
    85e0:	e583105c 	str	r1, [r3, #92]	; 0x5c
    85e4:	e582c000 	str	ip, [r2]
    85e8:	e5c30058 	strb	r0, [r3, #88]	; 0x58
    85ec:	e49d4004 	pop	{r4}		; (ldr r4, [sp], #4)
    85f0:	e12fff1e 	bx	lr

000085f4 <read_rx_buffer>:
    85f4:	e30a2d4c 	movw	r2, #44364	; 0xad4c
    85f8:	e3402001 	movt	r2, #1
    85fc:	e5920060 	ldr	r0, [r2, #96]	; 0x60
    8600:	e30a3d4c 	movw	r3, #44364	; 0xad4c
    8604:	e5921064 	ldr	r1, [r2, #100]	; 0x64
    8608:	e3403001 	movt	r3, #1
    860c:	e1500001 	cmp	r0, r1
    8610:	0afffff9 	beq	85fc <read_rx_buffer+0x8>
    8614:	e5932060 	ldr	r2, [r3, #96]	; 0x60
    8618:	e0832002 	add	r2, r3, r2
    861c:	e5d20068 	ldrb	r0, [r2, #104]	; 0x68
    8620:	e5932060 	ldr	r2, [r3, #96]	; 0x60
    8624:	e2822001 	add	r2, r2, #1
    8628:	e6ef2072 	uxtb	r2, r2
    862c:	e5832060 	str	r2, [r3, #96]	; 0x60
    8630:	e12fff1e 	bx	lr

00008634 <uart_init>:
    8634:	e30a2c68 	movw	r2, #44136	; 0xac68
    8638:	e3a03000 	mov	r3, #0
    863c:	e3402000 	movt	r2, #0
    8640:	e300c10e 	movw	ip, #270	; 0x10e
    8644:	e92d0ff0 	push	{r4, r5, r6, r7, r8, r9, sl, fp}
    8648:	e3a04001 	mov	r4, #1
    864c:	e5925038 	ldr	r5, [r2, #56]	; 0x38
    8650:	e3a08003 	mov	r8, #3
    8654:	e592003c 	ldr	r0, [r2, #60]	; 0x3c
    8658:	e3a09006 	mov	r9, #6
    865c:	e595a000 	ldr	sl, [r5]
    8660:	e30a1d4c 	movw	r1, #44364	; 0xad4c
    8664:	e5926034 	ldr	r6, [r2, #52]	; 0x34
    8668:	e5927040 	ldr	r7, [r2, #64]	; 0x40
    866c:	e38aa202 	orr	sl, sl, #536870912	; 0x20000000
    8670:	e592b044 	ldr	fp, [r2, #68]	; 0x44
    8674:	e585a000 	str	sl, [r5]
    8678:	e3a0a901 	mov	sl, #16384	; 0x4000
    867c:	e5925048 	ldr	r5, [r2, #72]	; 0x48
    8680:	e5804000 	str	r4, [r0]
    8684:	e592404c 	ldr	r4, [r2, #76]	; 0x4c
    8688:	e5920050 	ldr	r0, [r2, #80]	; 0x50
    868c:	e5863000 	str	r3, [r6]
    8690:	e5873000 	str	r3, [r7]
    8694:	e58b8000 	str	r8, [fp]
    8698:	e5853000 	str	r3, [r5]
    869c:	e30a5d8c 	movw	r5, #44428	; 0xad8c
    86a0:	e5849000 	str	r9, [r4]
    86a4:	e3a09005 	mov	r9, #5
    86a8:	e5924020 	ldr	r4, [r2, #32]
    86ac:	e580c000 	str	ip, [r0]
    86b0:	e5940004 	ldr	r0, [r4, #4]
    86b4:	e592c054 	ldr	ip, [r2, #84]	; 0x54
    86b8:	e3401001 	movt	r1, #1
    86bc:	e3c00a07 	bic	r0, r0, #28672	; 0x7000
    86c0:	e3405000 	movt	r5, #0
    86c4:	e3800a02 	orr	r0, r0, #8192	; 0x2000
    86c8:	e5840004 	str	r0, [r4, #4]
    86cc:	e594b004 	ldr	fp, [r4, #4]
    86d0:	e5920058 	ldr	r0, [r2, #88]	; 0x58
    86d4:	e3cbb90e 	bic	fp, fp, #229376	; 0x38000
    86d8:	e38bb801 	orr	fp, fp, #65536	; 0x10000
    86dc:	e584b004 	str	fp, [r4, #4]
    86e0:	e3a04902 	mov	r4, #32768	; 0x8000
    86e4:	e58c3000 	str	r3, [ip]
    86e8:	e580a000 	str	sl, [r0]
    86ec:	e58c3000 	str	r3, [ip]
    86f0:	e5803000 	str	r3, [r0]
    86f4:	e58c3000 	str	r3, [ip]
    86f8:	e5804000 	str	r4, [r0]
    86fc:	e58c3000 	str	r3, [ip]
    8700:	e5803000 	str	r3, [r0]
    8704:	e5813060 	str	r3, [r1, #96]	; 0x60
    8708:	e592200c 	ldr	r2, [r2, #12]
    870c:	e5813064 	str	r3, [r1, #100]	; 0x64
    8710:	e581305c 	str	r3, [r1, #92]	; 0x5c
    8714:	e5853014 	str	r3, [r5, #20]
    8718:	e5c13058 	strb	r3, [r1, #88]	; 0x58
    871c:	e5878000 	str	r8, [r7]
    8720:	e5869000 	str	r9, [r6]
    8724:	e5923000 	ldr	r3, [r2]
    8728:	e8bd0ff0 	pop	{r4, r5, r6, r7, r8, r9, sl, fp}
    872c:	e3833202 	orr	r3, r3, #536870912	; 0x20000000
    8730:	e5823000 	str	r3, [r2]
    8734:	e12fff1e 	bx	lr

00008738 <irq_handler_mini_uart>:
    8738:	e30a3c68 	movw	r3, #44136	; 0xac68
    873c:	e30a2d4c 	movw	r2, #44364	; 0xad4c
    8740:	e3403000 	movt	r3, #0
    8744:	e30a0d8c 	movw	r0, #44428	; 0xad8c
    8748:	e92d01f0 	push	{r4, r5, r6, r7, r8}
    874c:	e3a07000 	mov	r7, #0
    8750:	e3402001 	movt	r2, #1
    8754:	e3a06005 	mov	r6, #5
    8758:	e593104c 	ldr	r1, [r3, #76]	; 0x4c
    875c:	e5934030 	ldr	r4, [r3, #48]	; 0x30
    8760:	e5935034 	ldr	r5, [r3, #52]	; 0x34
    8764:	e3400000 	movt	r0, #0
    8768:	e5913000 	ldr	r3, [r1]
    876c:	e3130001 	tst	r3, #1
    8770:	1a00001c 	bne	87e8 <irq_handler_mini_uart+0xb0>
    8774:	e3130004 	tst	r3, #4
    8778:	0a000008 	beq	87a0 <irq_handler_mini_uart+0x68>
    877c:	e592c064 	ldr	ip, [r2, #100]	; 0x64
    8780:	e5948000 	ldr	r8, [r4]
    8784:	e082c00c 	add	ip, r2, ip
    8788:	e6ef8078 	uxtb	r8, r8
    878c:	e5cc8068 	strb	r8, [ip, #104]	; 0x68
    8790:	e592c064 	ldr	ip, [r2, #100]	; 0x64
    8794:	e28cc001 	add	ip, ip, #1
    8798:	e6efc07c 	uxtb	ip, ip
    879c:	e582c064 	str	ip, [r2, #100]	; 0x64
    87a0:	e3130002 	tst	r3, #2
    87a4:	0affffef 	beq	8768 <irq_handler_mini_uart+0x30>
    87a8:	e590c014 	ldr	ip, [r0, #20]
    87ac:	e592305c 	ldr	r3, [r2, #92]	; 0x5c
    87b0:	e15c0003 	cmp	ip, r3
    87b4:	0a00000e 	beq	87f4 <irq_handler_mini_uart+0xbc>
    87b8:	e592305c 	ldr	r3, [r2, #92]	; 0x5c
    87bc:	e0803003 	add	r3, r0, r3
    87c0:	e5d33018 	ldrb	r3, [r3, #24]
    87c4:	e6ef3073 	uxtb	r3, r3
    87c8:	e5843000 	str	r3, [r4]
    87cc:	e592305c 	ldr	r3, [r2, #92]	; 0x5c
    87d0:	e2833001 	add	r3, r3, #1
    87d4:	e6ff3073 	uxth	r3, r3
    87d8:	e582305c 	str	r3, [r2, #92]	; 0x5c
    87dc:	e5913000 	ldr	r3, [r1]
    87e0:	e3130001 	tst	r3, #1
    87e4:	0affffe2 	beq	8774 <irq_handler_mini_uart+0x3c>
    87e8:	f10c0080 	cpsid	i
    87ec:	e8bd01f0 	pop	{r4, r5, r6, r7, r8}
    87f0:	e12fff1e 	bx	lr
    87f4:	e5c27058 	strb	r7, [r2, #88]	; 0x58
    87f8:	e5856000 	str	r6, [r5]
    87fc:	eaffffd9 	b	8768 <irq_handler_mini_uart+0x30>

00008800 <irq_vectors_setup>:
    8800:	e59f301c 	ldr	r3, [pc, #28]	; 8824 <irq_vectors_setup+0x24>
    8804:	e2831004 	add	r1, r3, #4
    8808:	e2610000 	rsb	r0, r1, #0
    880c:	e2831040 	add	r1, r3, #64	; 0x40
    8810:	e5b32004 	ldr	r2, [r3, #4]!
    8814:	e1530001 	cmp	r3, r1
    8818:	e7832000 	str	r2, [r3, r0]
    881c:	1afffffb 	bne	8810 <irq_vectors_setup+0x10>
    8820:	e12fff1e 	bx	lr
    8824:	00008030 	andeq	r8, r0, r0, lsr r0

00008828 <dump_memory>:
    8828:	e92d4070 	push	{r4, r5, r6, lr}
    882c:	e2516000 	subs	r6, r1, #0
    8830:	e24dd008 	sub	sp, sp, #8
    8834:	da000012 	ble	8884 <dump_memory+0x5c>
    8838:	e1a05000 	mov	r5, r0
    883c:	e3a04000 	mov	r4, #0
    8840:	e595c000 	ldr	ip, [r5]
    8844:	e30a0d20 	movw	r0, #44320	; 0xad20
    8848:	e3400000 	movt	r0, #0
    884c:	e30a1d3c 	movw	r1, #44348	; 0xad3c
    8850:	e3401000 	movt	r1, #0
    8854:	e30a2b8c 	movw	r2, #43916	; 0xab8c
    8858:	e58dc000 	str	ip, [sp]
    885c:	e1a03005 	mov	r3, r5
    8860:	e3402000 	movt	r2, #0
    8864:	e2844001 	add	r4, r4, #1
    8868:	eb000614 	bl	a0c0 <_ZN12FormatParser6formatEPcPKcz>
    886c:	e30a0d3c 	movw	r0, #44348	; 0xad3c
    8870:	e2855004 	add	r5, r5, #4
    8874:	e3400000 	movt	r0, #0
    8878:	ebffff33 	bl	854c <sendString>
    887c:	e1540006 	cmp	r4, r6
    8880:	1affffee 	bne	8840 <dump_memory+0x18>
    8884:	e28dd008 	add	sp, sp, #8
    8888:	e8bd8070 	pop	{r4, r5, r6, pc}

0000888c <dump_debug_init>:
    888c:	e30a3d4c 	movw	r3, #44364	; 0xad4c
    8890:	e3a02203 	mov	r2, #805306368	; 0x30000000
    8894:	e3403001 	movt	r3, #1
    8898:	e3a01243 	mov	r1, #805306372	; 0x30000004
    889c:	e3a00000 	mov	r0, #0
    88a0:	e5832168 	str	r2, [r3, #360]	; 0x168
    88a4:	e583116c 	str	r1, [r3, #364]	; 0x16c
    88a8:	e5821000 	str	r1, [r2]
    88ac:	e5c20004 	strb	r0, [r2, #4]
    88b0:	e12fff1e 	bx	lr

000088b4 <dump_debug_message>:
    88b4:	e30acd4c 	movw	ip, #44364	; 0xad4c
    88b8:	e3a03a0f 	mov	r3, #61440	; 0xf000
    88bc:	e340c001 	movt	ip, #1
    88c0:	e3433000 	movt	r3, #12288	; 0x3000
    88c4:	e59c216c 	ldr	r2, [ip, #364]	; 0x16c
    88c8:	e52d4004 	push	{r4}		; (str r4, [sp, #-4]!)
    88cc:	e1520003 	cmp	r2, r3
    88d0:	8a00000e 	bhi	8910 <dump_debug_message+0x5c>
    88d4:	e1a0400c 	mov	r4, ip
    88d8:	ea000000 	b	88e0 <dump_debug_message+0x2c>
    88dc:	e594216c 	ldr	r2, [r4, #364]	; 0x16c
    88e0:	e2821001 	add	r1, r2, #1
    88e4:	e30a3d4c 	movw	r3, #44364	; 0xad4c
    88e8:	e58c116c 	str	r1, [ip, #364]	; 0x16c
    88ec:	e5d01000 	ldrb	r1, [r0]
    88f0:	e3403001 	movt	r3, #1
    88f4:	e5c21000 	strb	r1, [r2]
    88f8:	e4d02001 	ldrb	r2, [r0], #1
    88fc:	e3520000 	cmp	r2, #0
    8900:	1afffff5 	bne	88dc <dump_debug_message+0x28>
    8904:	e5932168 	ldr	r2, [r3, #360]	; 0x168
    8908:	e593316c 	ldr	r3, [r3, #364]	; 0x16c
    890c:	e5823000 	str	r3, [r2]
    8910:	e49d4004 	pop	{r4}		; (ldr r4, [sp], #4)
    8914:	e12fff1e 	bx	lr

00008918 <processInterrupt>:
    8918:	e92d4010 	push	{r4, lr}
    891c:	e1a04001 	mov	r4, r1
    8920:	ebfffebc 	bl	8418 <irq_handler_arm_timer>
    8924:	e1a00004 	mov	r0, r4
    8928:	e8bd8010 	pop	{r4, pc}

0000892c <isr>:
    892c:	e92d4038 	push	{r3, r4, r5, lr}
    8930:	e30a4c68 	movw	r4, #44136	; 0xac68
    8934:	e3404000 	movt	r4, #0
    8938:	e1a05000 	mov	r5, r0
    893c:	e594305c 	ldr	r3, [r4, #92]	; 0x5c
    8940:	e5933000 	ldr	r3, [r3]
    8944:	e3130001 	tst	r3, #1
    8948:	1a000006 	bne	8968 <isr+0x3c>
    894c:	e5943064 	ldr	r3, [r4, #100]	; 0x64
    8950:	e5933000 	ldr	r3, [r3]
    8954:	e3130202 	tst	r3, #536870912	; 0x20000000
    8958:	0a000000 	beq	8960 <isr+0x34>
    895c:	ebffff75 	bl	8738 <irq_handler_mini_uart>
    8960:	e1a00005 	mov	r0, r5
    8964:	e8bd8038 	pop	{r3, r4, r5, pc}
    8968:	ebfffeaa 	bl	8418 <irq_handler_arm_timer>
    896c:	e5943060 	ldr	r3, [r4, #96]	; 0x60
    8970:	e3a02000 	mov	r2, #0
    8974:	e5832000 	str	r2, [r3]
    8978:	eafffff3 	b	894c <isr+0x20>

0000897c <_ZN17Hex2BinEFSMachine7initialE5PhasePc>:
    897c:	e3510000 	cmp	r1, #0
    8980:	e92d4038 	push	{r3, r4, r5, lr}
    8984:	e1a04000 	mov	r4, r0
    8988:	0a000009 	beq	89b4 <_ZN17Hex2BinEFSMachine7initialE5PhasePc+0x38>
    898c:	e3510001 	cmp	r1, #1
    8990:	1a000005 	bne	89ac <_ZN17Hex2BinEFSMachine7initialE5PhasePc+0x30>
    8994:	e5900130 	ldr	r0, [r0, #304]	; 0x130
    8998:	e3500001 	cmp	r0, #1
    899c:	08bd8038 	popeq	{r3, r4, r5, pc}
    89a0:	e5d23000 	ldrb	r3, [r2]
    89a4:	e353003a 	cmp	r3, #58	; 0x3a
    89a8:	0a000008 	beq	89d0 <_ZN17Hex2BinEFSMachine7initialE5PhasePc+0x54>
    89ac:	e3a00000 	mov	r0, #0
    89b0:	e8bd8038 	pop	{r3, r4, r5, pc}
    89b4:	e5801008 	str	r1, [r0, #8]
    89b8:	e1a00001 	mov	r0, r1
    89bc:	e5841018 	str	r1, [r4, #24]
    89c0:	e584111c 	str	r1, [r4, #284]	; 0x11c
    89c4:	e5841014 	str	r1, [r4, #20]
    89c8:	e584100c 	str	r1, [r4, #12]
    89cc:	e8bd8038 	pop	{r3, r4, r5, pc}
    89d0:	e5940004 	ldr	r0, [r4, #4]
    89d4:	e3a01002 	mov	r1, #2
    89d8:	e3100001 	tst	r0, #1
    89dc:	008400c0 	addeq	r0, r4, r0, asr #1
    89e0:	179420c0 	ldrne	r2, [r4, r0, asr #1]
    89e4:	15943000 	ldrne	r3, [r4]
    89e8:	05943000 	ldreq	r3, [r4]
    89ec:	17923003 	ldrne	r3, [r2, r3]
    89f0:	e3a02000 	mov	r2, #0
    89f4:	108400c0 	addne	r0, r4, r0, asr #1
    89f8:	e1a05002 	mov	r5, r2
    89fc:	e12fff33 	blx	r3
    8a00:	e5845004 	str	r5, [r4, #4]
    8a04:	e3083b3c 	movw	r3, #35644	; 0x8b3c
    8a08:	e3403000 	movt	r3, #0
    8a0c:	e1a00004 	mov	r0, r4
    8a10:	e5843000 	str	r3, [r4]
    8a14:	e1a01005 	mov	r1, r5
    8a18:	e1a02005 	mov	r2, r5
    8a1c:	eb000046 	bl	8b3c <_ZN17Hex2BinEFSMachine8dataSizeE5PhasePc>
    8a20:	e1a00005 	mov	r0, r5
    8a24:	e8bd8038 	pop	{r3, r4, r5, pc}

00008a28 <_ZN17Hex2BinEFSMachine7addressE5PhasePc>:
    8a28:	e3510000 	cmp	r1, #0
    8a2c:	e92d4010 	push	{r4, lr}
    8a30:	e1a04000 	mov	r4, r0
    8a34:	0a00002b 	beq	8ae8 <_ZN17Hex2BinEFSMachine7addressE5PhasePc+0xc0>
    8a38:	e3510001 	cmp	r1, #1
    8a3c:	1a000027 	bne	8ae0 <_ZN17Hex2BinEFSMachine7addressE5PhasePc+0xb8>
    8a40:	e5d23000 	ldrb	r3, [r2]
    8a44:	e590100c 	ldr	r1, [r0, #12]
    8a48:	e2432030 	sub	r2, r3, #48	; 0x30
    8a4c:	e6ef0072 	uxtb	r0, r2
    8a50:	e3500009 	cmp	r0, #9
    8a54:	8a000027 	bhi	8af8 <_ZN17Hex2BinEFSMachine7addressE5PhasePc+0xd0>
    8a58:	e5943008 	ldr	r3, [r4, #8]
    8a5c:	e1822201 	orr	r2, r2, r1, lsl #4
    8a60:	e584200c 	str	r2, [r4, #12]
    8a64:	e2833001 	add	r3, r3, #1
    8a68:	e3530002 	cmp	r3, #2
    8a6c:	e5843008 	str	r3, [r4, #8]
    8a70:	0a000029 	beq	8b1c <_ZN17Hex2BinEFSMachine7addressE5PhasePc+0xf4>
    8a74:	e3530004 	cmp	r3, #4
    8a78:	1a000018 	bne	8ae0 <_ZN17Hex2BinEFSMachine7addressE5PhasePc+0xb8>
    8a7c:	e5940004 	ldr	r0, [r4, #4]
    8a80:	e5941018 	ldr	r1, [r4, #24]
    8a84:	e594311c 	ldr	r3, [r4, #284]	; 0x11c
    8a88:	e3100001 	tst	r0, #1
    8a8c:	008400c0 	addeq	r0, r4, r0, asr #1
    8a90:	e1823403 	orr	r3, r2, r3, lsl #8
    8a94:	e0812002 	add	r2, r1, r2
    8a98:	e3a01002 	mov	r1, #2
    8a9c:	e584311c 	str	r3, [r4, #284]	; 0x11c
    8aa0:	e5842018 	str	r2, [r4, #24]
    8aa4:	15943000 	ldrne	r3, [r4]
    8aa8:	179420c0 	ldrne	r2, [r4, r0, asr #1]
    8aac:	05943000 	ldreq	r3, [r4]
    8ab0:	17923003 	ldrne	r3, [r2, r3]
    8ab4:	e3a02000 	mov	r2, #0
    8ab8:	108400c0 	addne	r0, r4, r0, asr #1
    8abc:	e12fff33 	blx	r3
    8ac0:	e3083c24 	movw	r3, #35876	; 0x8c24
    8ac4:	e3a02000 	mov	r2, #0
    8ac8:	e3403000 	movt	r3, #0
    8acc:	e1a01002 	mov	r1, r2
    8ad0:	e5843000 	str	r3, [r4]
    8ad4:	e1a00004 	mov	r0, r4
    8ad8:	e5842004 	str	r2, [r4, #4]
    8adc:	eb000050 	bl	8c24 <_ZN17Hex2BinEFSMachine10recordTypeE5PhasePc>
    8ae0:	e3a00000 	mov	r0, #0
    8ae4:	e8bd8010 	pop	{r4, pc}
    8ae8:	e580100c 	str	r1, [r0, #12]
    8aec:	e5801008 	str	r1, [r0, #8]
    8af0:	e3a00000 	mov	r0, #0
    8af4:	e8bd8010 	pop	{r4, pc}
    8af8:	e2432041 	sub	r2, r3, #65	; 0x41
    8afc:	e3520005 	cmp	r2, #5
    8b00:	92432037 	subls	r2, r3, #55	; 0x37
    8b04:	9affffd3 	bls	8a58 <_ZN17Hex2BinEFSMachine7addressE5PhasePc+0x30>
    8b08:	e2432061 	sub	r2, r3, #97	; 0x61
    8b0c:	e3520005 	cmp	r2, #5
    8b10:	92432057 	subls	r2, r3, #87	; 0x57
    8b14:	83a02000 	movhi	r2, #0
    8b18:	eaffffce 	b	8a58 <_ZN17Hex2BinEFSMachine7addressE5PhasePc+0x30>
    8b1c:	e5941018 	ldr	r1, [r4, #24]
    8b20:	e3a03000 	mov	r3, #0
    8b24:	e584211c 	str	r2, [r4, #284]	; 0x11c
    8b28:	e3a00000 	mov	r0, #0
    8b2c:	e0812002 	add	r2, r1, r2
    8b30:	e5842018 	str	r2, [r4, #24]
    8b34:	e584300c 	str	r3, [r4, #12]
    8b38:	e8bd8010 	pop	{r4, pc}

00008b3c <_ZN17Hex2BinEFSMachine8dataSizeE5PhasePc>:
    8b3c:	e3510000 	cmp	r1, #0
    8b40:	e92d4010 	push	{r4, lr}
    8b44:	e1a04000 	mov	r4, r0
    8b48:	0a000018 	beq	8bb0 <_ZN17Hex2BinEFSMachine8dataSizeE5PhasePc+0x74>
    8b4c:	e3510001 	cmp	r1, #1
    8b50:	1a000014 	bne	8ba8 <_ZN17Hex2BinEFSMachine8dataSizeE5PhasePc+0x6c>
    8b54:	e5d23000 	ldrb	r3, [r2]
    8b58:	e590000c 	ldr	r0, [r0, #12]
    8b5c:	e2432030 	sub	r2, r3, #48	; 0x30
    8b60:	e6ef1072 	uxtb	r1, r2
    8b64:	e3510009 	cmp	r1, #9
    8b68:	9a000007 	bls	8b8c <_ZN17Hex2BinEFSMachine8dataSizeE5PhasePc+0x50>
    8b6c:	e2432041 	sub	r2, r3, #65	; 0x41
    8b70:	e3520005 	cmp	r2, #5
    8b74:	92432037 	subls	r2, r3, #55	; 0x37
    8b78:	9a000003 	bls	8b8c <_ZN17Hex2BinEFSMachine8dataSizeE5PhasePc+0x50>
    8b7c:	e2432061 	sub	r2, r3, #97	; 0x61
    8b80:	e3520005 	cmp	r2, #5
    8b84:	92432057 	subls	r2, r3, #87	; 0x57
    8b88:	83a02000 	movhi	r2, #0
    8b8c:	e5941008 	ldr	r1, [r4, #8]
    8b90:	e1823200 	orr	r3, r2, r0, lsl #4
    8b94:	e584300c 	str	r3, [r4, #12]
    8b98:	e2812001 	add	r2, r1, #1
    8b9c:	e3520002 	cmp	r2, #2
    8ba0:	e5842008 	str	r2, [r4, #8]
    8ba4:	0a000005 	beq	8bc0 <_ZN17Hex2BinEFSMachine8dataSizeE5PhasePc+0x84>
    8ba8:	e3a00000 	mov	r0, #0
    8bac:	e8bd8010 	pop	{r4, pc}
    8bb0:	e580100c 	str	r1, [r0, #12]
    8bb4:	e5801008 	str	r1, [r0, #8]
    8bb8:	e3a00000 	mov	r0, #0
    8bbc:	e8bd8010 	pop	{r4, pc}
    8bc0:	e5940004 	ldr	r0, [r4, #4]
    8bc4:	e3a01002 	mov	r1, #2
    8bc8:	e5942018 	ldr	r2, [r4, #24]
    8bcc:	e5843010 	str	r3, [r4, #16]
    8bd0:	e3100001 	tst	r0, #1
    8bd4:	e0823003 	add	r3, r2, r3
    8bd8:	e5843018 	str	r3, [r4, #24]
    8bdc:	179420c0 	ldrne	r2, [r4, r0, asr #1]
    8be0:	15943000 	ldrne	r3, [r4]
    8be4:	05943000 	ldreq	r3, [r4]
    8be8:	17923003 	ldrne	r3, [r2, r3]
    8bec:	e3a02000 	mov	r2, #0
    8bf0:	008400c0 	addeq	r0, r4, r0, asr #1
    8bf4:	108400c0 	addne	r0, r4, r0, asr #1
    8bf8:	e12fff33 	blx	r3
    8bfc:	e3083a28 	movw	r3, #35368	; 0x8a28
    8c00:	e3a02000 	mov	r2, #0
    8c04:	e3403000 	movt	r3, #0
    8c08:	e1a01002 	mov	r1, r2
    8c0c:	e5843000 	str	r3, [r4]
    8c10:	e1a00004 	mov	r0, r4
    8c14:	e5842004 	str	r2, [r4, #4]
    8c18:	ebffff82 	bl	8a28 <_ZN17Hex2BinEFSMachine7addressE5PhasePc>
    8c1c:	e3a00000 	mov	r0, #0
    8c20:	e8bd8010 	pop	{r4, pc}

00008c24 <_ZN17Hex2BinEFSMachine10recordTypeE5PhasePc>:
    8c24:	e3510001 	cmp	r1, #1
    8c28:	e92d4010 	push	{r4, lr}
    8c2c:	e1a04000 	mov	r4, r0
    8c30:	0a000005 	beq	8c4c <_ZN17Hex2BinEFSMachine10recordTypeE5PhasePc+0x28>
    8c34:	3a000035 	bcc	8d10 <_ZN17Hex2BinEFSMachine10recordTypeE5PhasePc+0xec>
    8c38:	e3510002 	cmp	r1, #2
    8c3c:	03a03000 	moveq	r3, #0
    8c40:	05803014 	streq	r3, [r0, #20]
    8c44:	e3a00000 	mov	r0, #0
    8c48:	e8bd8010 	pop	{r4, pc}
    8c4c:	e5d22000 	ldrb	r2, [r2]
    8c50:	e590100c 	ldr	r1, [r0, #12]
    8c54:	e2423030 	sub	r3, r2, #48	; 0x30
    8c58:	e6ef0073 	uxtb	r0, r3
    8c5c:	e3500009 	cmp	r0, #9
    8c60:	9a000007 	bls	8c84 <_ZN17Hex2BinEFSMachine10recordTypeE5PhasePc+0x60>
    8c64:	e2423041 	sub	r3, r2, #65	; 0x41
    8c68:	e3530005 	cmp	r3, #5
    8c6c:	92423037 	subls	r3, r2, #55	; 0x37
    8c70:	9a000003 	bls	8c84 <_ZN17Hex2BinEFSMachine10recordTypeE5PhasePc+0x60>
    8c74:	e2423061 	sub	r3, r2, #97	; 0x61
    8c78:	e3530005 	cmp	r3, #5
    8c7c:	92423057 	subls	r3, r2, #87	; 0x57
    8c80:	83a03000 	movhi	r3, #0
    8c84:	e5942008 	ldr	r2, [r4, #8]
    8c88:	e1833201 	orr	r3, r3, r1, lsl #4
    8c8c:	e584300c 	str	r3, [r4, #12]
    8c90:	e2822001 	add	r2, r2, #1
    8c94:	e3520002 	cmp	r2, #2
    8c98:	e5842008 	str	r2, [r4, #8]
    8c9c:	1affffe8 	bne	8c44 <_ZN17Hex2BinEFSMachine10recordTypeE5PhasePc+0x20>
    8ca0:	e5941010 	ldr	r1, [r4, #16]
    8ca4:	e5942018 	ldr	r2, [r4, #24]
    8ca8:	e3510000 	cmp	r1, #0
    8cac:	e0822003 	add	r2, r2, r3
    8cb0:	e5843130 	str	r3, [r4, #304]	; 0x130
    8cb4:	e5842018 	str	r2, [r4, #24]
    8cb8:	e5940004 	ldr	r0, [r4, #4]
    8cbc:	da000018 	ble	8d24 <_ZN17Hex2BinEFSMachine10recordTypeE5PhasePc+0x100>
    8cc0:	e3100001 	tst	r0, #1
    8cc4:	e3a01002 	mov	r1, #2
    8cc8:	008400c0 	addeq	r0, r4, r0, asr #1
    8ccc:	179420c0 	ldrne	r2, [r4, r0, asr #1]
    8cd0:	15943000 	ldrne	r3, [r4]
    8cd4:	05943000 	ldreq	r3, [r4]
    8cd8:	17923003 	ldrne	r3, [r2, r3]
    8cdc:	e3a02000 	mov	r2, #0
    8ce0:	108400c0 	addne	r0, r4, r0, asr #1
    8ce4:	e12fff33 	blx	r3
    8ce8:	e3083d70 	movw	r3, #36208	; 0x8d70
    8cec:	e3a02000 	mov	r2, #0
    8cf0:	e3403000 	movt	r3, #0
    8cf4:	e1a01002 	mov	r1, r2
    8cf8:	e5843000 	str	r3, [r4]
    8cfc:	e1a00004 	mov	r0, r4
    8d00:	e5842004 	str	r2, [r4, #4]
    8d04:	eb000019 	bl	8d70 <_ZN17Hex2BinEFSMachine4dataE5PhasePc>
    8d08:	e3a00000 	mov	r0, #0
    8d0c:	e8bd8010 	pop	{r4, pc}
    8d10:	e3a03000 	mov	r3, #0
    8d14:	e580300c 	str	r3, [r0, #12]
    8d18:	e5803008 	str	r3, [r0, #8]
    8d1c:	e3a00000 	mov	r0, #0
    8d20:	e8bd8010 	pop	{r4, pc}
    8d24:	e3100001 	tst	r0, #1
    8d28:	e3a01002 	mov	r1, #2
    8d2c:	008400c0 	addeq	r0, r4, r0, asr #1
    8d30:	179420c0 	ldrne	r2, [r4, r0, asr #1]
    8d34:	15943000 	ldrne	r3, [r4]
    8d38:	05943000 	ldreq	r3, [r4]
    8d3c:	17923003 	ldrne	r3, [r2, r3]
    8d40:	e3a02000 	mov	r2, #0
    8d44:	108400c0 	addne	r0, r4, r0, asr #1
    8d48:	e12fff33 	blx	r3
    8d4c:	e3093108 	movw	r3, #37128	; 0x9108
    8d50:	e3a02000 	mov	r2, #0
    8d54:	e3403000 	movt	r3, #0
    8d58:	e1a01002 	mov	r1, r2
    8d5c:	e5843000 	str	r3, [r4]
    8d60:	e1a00004 	mov	r0, r4
    8d64:	e5842004 	str	r2, [r4, #4]
    8d68:	eb0000e6 	bl	9108 <_ZN17Hex2BinEFSMachine8checkSumE5PhasePc>
    8d6c:	eaffffb4 	b	8c44 <_ZN17Hex2BinEFSMachine10recordTypeE5PhasePc+0x20>

00008d70 <_ZN17Hex2BinEFSMachine4dataE5PhasePc>:
    8d70:	e3510001 	cmp	r1, #1
    8d74:	e92d4010 	push	{r4, lr}
    8d78:	e1a04000 	mov	r4, r0
    8d7c:	0a000015 	beq	8dd8 <_ZN17Hex2BinEFSMachine4dataE5PhasePc+0x68>
    8d80:	3a00000c 	bcc	8db8 <_ZN17Hex2BinEFSMachine4dataE5PhasePc+0x48>
    8d84:	e3510002 	cmp	r1, #2
    8d88:	1a000008 	bne	8db0 <_ZN17Hex2BinEFSMachine4dataE5PhasePc+0x40>
    8d8c:	e5902014 	ldr	r2, [r0, #20]
    8d90:	e590300c 	ldr	r3, [r0, #12]
    8d94:	e5901018 	ldr	r1, [r0, #24]
    8d98:	e2820001 	add	r0, r2, #1
    8d9c:	e0842002 	add	r2, r4, r2
    8da0:	e0811003 	add	r1, r1, r3
    8da4:	e5840014 	str	r0, [r4, #20]
    8da8:	e5c2301c 	strb	r3, [r2, #28]
    8dac:	e5841018 	str	r1, [r4, #24]
    8db0:	e3a00000 	mov	r0, #0
    8db4:	e8bd8010 	pop	{r4, pc}
    8db8:	e5902010 	ldr	r2, [r0, #16]
    8dbc:	e3a03000 	mov	r3, #0
    8dc0:	e5803008 	str	r3, [r0, #8]
    8dc4:	e580300c 	str	r3, [r0, #12]
    8dc8:	e2423001 	sub	r3, r2, #1
    8dcc:	e5803010 	str	r3, [r0, #16]
    8dd0:	e3a00000 	mov	r0, #0
    8dd4:	e8bd8010 	pop	{r4, pc}
    8dd8:	e5d23000 	ldrb	r3, [r2]
    8ddc:	e590100c 	ldr	r1, [r0, #12]
    8de0:	e2432030 	sub	r2, r3, #48	; 0x30
    8de4:	e6ef0072 	uxtb	r0, r2
    8de8:	e3500009 	cmp	r0, #9
    8dec:	9a000007 	bls	8e10 <_ZN17Hex2BinEFSMachine4dataE5PhasePc+0xa0>
    8df0:	e2432041 	sub	r2, r3, #65	; 0x41
    8df4:	e3520005 	cmp	r2, #5
    8df8:	92432037 	subls	r2, r3, #55	; 0x37
    8dfc:	9a000003 	bls	8e10 <_ZN17Hex2BinEFSMachine4dataE5PhasePc+0xa0>
    8e00:	e2432061 	sub	r2, r3, #97	; 0x61
    8e04:	e3520005 	cmp	r2, #5
    8e08:	92432057 	subls	r2, r3, #87	; 0x57
    8e0c:	83a02000 	movhi	r2, #0
    8e10:	e5943008 	ldr	r3, [r4, #8]
    8e14:	e1822201 	orr	r2, r2, r1, lsl #4
    8e18:	e584200c 	str	r2, [r4, #12]
    8e1c:	e2833001 	add	r3, r3, #1
    8e20:	e3530002 	cmp	r3, #2
    8e24:	e5843008 	str	r3, [r4, #8]
    8e28:	1affffe0 	bne	8db0 <_ZN17Hex2BinEFSMachine4dataE5PhasePc+0x40>
    8e2c:	e5943010 	ldr	r3, [r4, #16]
    8e30:	e5940004 	ldr	r0, [r4, #4]
    8e34:	e3530000 	cmp	r3, #0
    8e38:	1a000012 	bne	8e88 <_ZN17Hex2BinEFSMachine4dataE5PhasePc+0x118>
    8e3c:	e3100001 	tst	r0, #1
    8e40:	e3a01002 	mov	r1, #2
    8e44:	008400c0 	addeq	r0, r4, r0, asr #1
    8e48:	179420c0 	ldrne	r2, [r4, r0, asr #1]
    8e4c:	15943000 	ldrne	r3, [r4]
    8e50:	05943000 	ldreq	r3, [r4]
    8e54:	17923003 	ldrne	r3, [r2, r3]
    8e58:	e3a02000 	mov	r2, #0
    8e5c:	108400c0 	addne	r0, r4, r0, asr #1
    8e60:	e12fff33 	blx	r3
    8e64:	e3093108 	movw	r3, #37128	; 0x9108
    8e68:	e3a02000 	mov	r2, #0
    8e6c:	e3403000 	movt	r3, #0
    8e70:	e1a01002 	mov	r1, r2
    8e74:	e5843000 	str	r3, [r4]
    8e78:	e1a00004 	mov	r0, r4
    8e7c:	e5842004 	str	r2, [r4, #4]
    8e80:	eb0000a0 	bl	9108 <_ZN17Hex2BinEFSMachine8checkSumE5PhasePc>
    8e84:	eaffffc9 	b	8db0 <_ZN17Hex2BinEFSMachine4dataE5PhasePc+0x40>
    8e88:	e3100001 	tst	r0, #1
    8e8c:	e3a01002 	mov	r1, #2
    8e90:	008400c0 	addeq	r0, r4, r0, asr #1
    8e94:	179420c0 	ldrne	r2, [r4, r0, asr #1]
    8e98:	15943000 	ldrne	r3, [r4]
    8e9c:	05943000 	ldreq	r3, [r4]
    8ea0:	17923003 	ldrne	r3, [r2, r3]
    8ea4:	e3a02000 	mov	r2, #0
    8ea8:	108400c0 	addne	r0, r4, r0, asr #1
    8eac:	e12fff33 	blx	r3
    8eb0:	e3083d70 	movw	r3, #36208	; 0x8d70
    8eb4:	e3a02000 	mov	r2, #0
    8eb8:	e3403000 	movt	r3, #0
    8ebc:	e1a01002 	mov	r1, r2
    8ec0:	e5843000 	str	r3, [r4]
    8ec4:	e1a00004 	mov	r0, r4
    8ec8:	e5842004 	str	r2, [r4, #4]
    8ecc:	ebffffa7 	bl	8d70 <_ZN17Hex2BinEFSMachine4dataE5PhasePc>
    8ed0:	eaffffb6 	b	8db0 <_ZN17Hex2BinEFSMachine4dataE5PhasePc+0x40>

00008ed4 <_ZN17Hex2BinEFSMachineC1Ev>:
    8ed4:	e308197c 	movw	r1, #35196	; 0x897c
    8ed8:	e3a02000 	mov	r2, #0
    8edc:	e3401000 	movt	r1, #0
    8ee0:	e8800006 	stm	r0, {r1, r2}
    8ee4:	e5802008 	str	r2, [r0, #8]
    8ee8:	e5802018 	str	r2, [r0, #24]
    8eec:	e580211c 	str	r2, [r0, #284]	; 0x11c
    8ef0:	e5802014 	str	r2, [r0, #20]
    8ef4:	e580200c 	str	r2, [r0, #12]
    8ef8:	e580212c 	str	r2, [r0, #300]	; 0x12c
    8efc:	e5802128 	str	r2, [r0, #296]	; 0x128
    8f00:	e12fff1e 	bx	lr

00008f04 <convert>:
    8f04:	e2413030 	sub	r3, r1, #48	; 0x30
    8f08:	e6ef2073 	uxtb	r2, r3
    8f0c:	e3520009 	cmp	r2, #9
    8f10:	9a000007 	bls	8f34 <convert+0x30>
    8f14:	e2413041 	sub	r3, r1, #65	; 0x41
    8f18:	e3530005 	cmp	r3, #5
    8f1c:	92413037 	subls	r3, r1, #55	; 0x37
    8f20:	9a000003 	bls	8f34 <convert+0x30>
    8f24:	e2413061 	sub	r3, r1, #97	; 0x61
    8f28:	e3530005 	cmp	r3, #5
    8f2c:	92413057 	subls	r3, r1, #87	; 0x57
    8f30:	83a03000 	movhi	r3, #0
    8f34:	e1830200 	orr	r0, r3, r0, lsl #4
    8f38:	e12fff1e 	bx	lr

00008f3c <_ZN17Hex2BinEFSMachine5debugEPc5PhaseS0_>:
    8f3c:	e12fff1e 	bx	lr

00008f40 <_ZN17Hex2BinEFSMachine13processRecordEv>:
    8f40:	e92d4030 	push	{r4, r5, lr}
    8f44:	e3092f78 	movw	r2, #40824	; 0x9f78
    8f48:	e5905130 	ldr	r5, [r0, #304]	; 0x130
    8f4c:	e24dd074 	sub	sp, sp, #116	; 0x74
    8f50:	e3402000 	movt	r2, #0
    8f54:	e3a03000 	mov	r3, #0
    8f58:	e58d300c 	str	r3, [sp, #12]
    8f5c:	e1a04000 	mov	r4, r0
    8f60:	e98d000c 	stmib	sp, {r2, r3}
    8f64:	e58d3014 	str	r3, [sp, #20]
    8f68:	e58d3018 	str	r3, [sp, #24]
    8f6c:	e58d3010 	str	r3, [sp, #16]
    8f70:	e3550005 	cmp	r5, #5
    8f74:	979ff105 	ldrls	pc, [pc, r5, lsl #2]
    8f78:	ea000012 	b	8fc8 <_ZN17Hex2BinEFSMachine13processRecordEv+0x88>
    8f7c:	0000903c 	andeq	r9, r0, ip, lsr r0
    8f80:	0000909c 	muleq	r0, ip, r0
    8f84:	00008f94 	muleq	r0, r4, pc	; <UNPREDICTABLE>
    8f88:	000090b4 	strheq	r9, [r0], -r4
    8f8c:	00009000 	andeq	r9, r0, r0
    8f90:	000090b4 	strheq	r9, [r0], -r4
    8f94:	e5d0101c 	ldrb	r1, [r0, #28]
    8f98:	e3a02002 	mov	r2, #2
    8f9c:	e5d0301d 	ldrb	r3, [r0, #29]
    8fa0:	e5802128 	str	r2, [r0, #296]	; 0x128
    8fa4:	e30a2ba8 	movw	r2, #43944	; 0xaba8
    8fa8:	e0833401 	add	r3, r3, r1, lsl #8
    8fac:	e28d1020 	add	r1, sp, #32
    8fb0:	e5803120 	str	r3, [r0, #288]	; 0x120
    8fb4:	e28d0004 	add	r0, sp, #4
    8fb8:	e3402000 	movt	r2, #0
    8fbc:	eb00043f 	bl	a0c0 <_ZN12FormatParser6formatEPcPKcz>
    8fc0:	e28d0020 	add	r0, sp, #32
    8fc4:	ebfffd60 	bl	854c <sendString>
    8fc8:	e5942018 	ldr	r2, [r4, #24]
    8fcc:	e5943134 	ldr	r3, [r4, #308]	; 0x134
    8fd0:	e2622000 	rsb	r2, r2, #0
    8fd4:	e6ef2072 	uxtb	r2, r2
    8fd8:	e1520003 	cmp	r2, r3
    8fdc:	03a05000 	moveq	r5, #0
    8fe0:	0a000003 	beq	8ff4 <_ZN17Hex2BinEFSMachine13processRecordEv+0xb4>
    8fe4:	e30a0c00 	movw	r0, #44032	; 0xac00
    8fe8:	e3a05000 	mov	r5, #0
    8fec:	e3400000 	movt	r0, #0
    8ff0:	ebfffd55 	bl	854c <sendString>
    8ff4:	e1a00005 	mov	r0, r5
    8ff8:	e28dd074 	add	sp, sp, #116	; 0x74
    8ffc:	e8bd8030 	pop	{r4, r5, pc}
    9000:	e5d0101c 	ldrb	r1, [r0, #28]
    9004:	e3a02001 	mov	r2, #1
    9008:	e5d0301d 	ldrb	r3, [r0, #29]
    900c:	e5802128 	str	r2, [r0, #296]	; 0x128
    9010:	e30a2bc8 	movw	r2, #43976	; 0xabc8
    9014:	e0833401 	add	r3, r3, r1, lsl #8
    9018:	e28d0004 	add	r0, sp, #4
    901c:	e3402000 	movt	r2, #0
    9020:	e28d1020 	add	r1, sp, #32
    9024:	e1a03803 	lsl	r3, r3, #16
    9028:	e5843124 	str	r3, [r4, #292]	; 0x124
    902c:	eb000423 	bl	a0c0 <_ZN12FormatParser6formatEPcPKcz>
    9030:	e28d0020 	add	r0, sp, #32
    9034:	ebfffd44 	bl	854c <sendString>
    9038:	eaffffe2 	b	8fc8 <_ZN17Hex2BinEFSMachine13processRecordEv+0x88>
    903c:	e5903128 	ldr	r3, [r0, #296]	; 0x128
    9040:	e3530001 	cmp	r3, #1
    9044:	0a00002a 	beq	90f4 <_ZN17Hex2BinEFSMachine13processRecordEv+0x1b4>
    9048:	e3530002 	cmp	r3, #2
    904c:	0590311c 	ldreq	r3, [r0, #284]	; 0x11c
    9050:	05902120 	ldreq	r2, [r0, #288]	; 0x120
    9054:	1590311c 	ldrne	r3, [r0, #284]	; 0x11c
    9058:	00833202 	addeq	r3, r3, r2, lsl #4
    905c:	e580312c 	str	r3, [r0, #300]	; 0x12c
    9060:	e5943014 	ldr	r3, [r4, #20]
    9064:	e3530000 	cmp	r3, #0
    9068:	c284101b 	addgt	r1, r4, #27
    906c:	c3a03000 	movgt	r3, #0
    9070:	daffffd4 	ble	8fc8 <_ZN17Hex2BinEFSMachine13processRecordEv+0x88>
    9074:	e594212c 	ldr	r2, [r4, #300]	; 0x12c
    9078:	e2833001 	add	r3, r3, #1
    907c:	e2820001 	add	r0, r2, #1
    9080:	e584012c 	str	r0, [r4, #300]	; 0x12c
    9084:	e5f10001 	ldrb	r0, [r1, #1]!
    9088:	e5c20000 	strb	r0, [r2]
    908c:	e5942014 	ldr	r2, [r4, #20]
    9090:	e1520003 	cmp	r2, r3
    9094:	cafffff6 	bgt	9074 <_ZN17Hex2BinEFSMachine13processRecordEv+0x134>
    9098:	eaffffca 	b	8fc8 <_ZN17Hex2BinEFSMachine13processRecordEv+0x88>
    909c:	e30a0b98 	movw	r0, #43928	; 0xab98
    90a0:	e3400000 	movt	r0, #0
    90a4:	ebfffd28 	bl	854c <sendString>
    90a8:	e1a00005 	mov	r0, r5
    90ac:	e28dd074 	add	sp, sp, #116	; 0x74
    90b0:	e8bd8030 	pop	{r4, r5, pc}
    90b4:	e5d0301d 	ldrb	r3, [r0, #29]
    90b8:	e30a2be8 	movw	r2, #44008	; 0xabe8
    90bc:	e5d0c01c 	ldrb	ip, [r0, #28]
    90c0:	e28d1020 	add	r1, sp, #32
    90c4:	e5d0e01e 	ldrb	lr, [r0, #30]
    90c8:	e28d0004 	add	r0, sp, #4
    90cc:	e083c40c 	add	ip, r3, ip, lsl #8
    90d0:	e5d4301f 	ldrb	r3, [r4, #31]
    90d4:	e1a0c80c 	lsl	ip, ip, #16
    90d8:	e08cc40e 	add	ip, ip, lr, lsl #8
    90dc:	e08c3003 	add	r3, ip, r3
    90e0:	e3402000 	movt	r2, #0
    90e4:	eb0003f5 	bl	a0c0 <_ZN12FormatParser6formatEPcPKcz>
    90e8:	e28d0020 	add	r0, sp, #32
    90ec:	ebfffd16 	bl	854c <sendString>
    90f0:	eaffffb4 	b	8fc8 <_ZN17Hex2BinEFSMachine13processRecordEv+0x88>
    90f4:	e590211c 	ldr	r2, [r0, #284]	; 0x11c
    90f8:	e5903124 	ldr	r3, [r0, #292]	; 0x124
    90fc:	e0823003 	add	r3, r2, r3
    9100:	e580312c 	str	r3, [r0, #300]	; 0x12c
    9104:	eaffffd5 	b	9060 <_ZN17Hex2BinEFSMachine13processRecordEv+0x120>

00009108 <_ZN17Hex2BinEFSMachine8checkSumE5PhasePc>:
    9108:	e3510001 	cmp	r1, #1
    910c:	e92d4010 	push	{r4, lr}
    9110:	e1a04000 	mov	r4, r0
    9114:	0a00000b 	beq	9148 <_ZN17Hex2BinEFSMachine8checkSumE5PhasePc+0x40>
    9118:	3a000005 	bcc	9134 <_ZN17Hex2BinEFSMachine8checkSumE5PhasePc+0x2c>
    911c:	e3510002 	cmp	r1, #2
    9120:	1a000006 	bne	9140 <_ZN17Hex2BinEFSMachine8checkSumE5PhasePc+0x38>
    9124:	e590300c 	ldr	r3, [r0, #12]
    9128:	e8bd4010 	pop	{r4, lr}
    912c:	e5803134 	str	r3, [r0, #308]	; 0x134
    9130:	eaffff82 	b	8f40 <_ZN17Hex2BinEFSMachine13processRecordEv>
    9134:	e3a03000 	mov	r3, #0
    9138:	e5803008 	str	r3, [r0, #8]
    913c:	e580300c 	str	r3, [r0, #12]
    9140:	e3a00000 	mov	r0, #0
    9144:	e8bd8010 	pop	{r4, pc}
    9148:	e5d23000 	ldrb	r3, [r2]
    914c:	e590100c 	ldr	r1, [r0, #12]
    9150:	e2432030 	sub	r2, r3, #48	; 0x30
    9154:	e6ef0072 	uxtb	r0, r2
    9158:	e3500009 	cmp	r0, #9
    915c:	9a000007 	bls	9180 <_ZN17Hex2BinEFSMachine8checkSumE5PhasePc+0x78>
    9160:	e2432041 	sub	r2, r3, #65	; 0x41
    9164:	e3520005 	cmp	r2, #5
    9168:	92432037 	subls	r2, r3, #55	; 0x37
    916c:	9a000003 	bls	9180 <_ZN17Hex2BinEFSMachine8checkSumE5PhasePc+0x78>
    9170:	e2432061 	sub	r2, r3, #97	; 0x61
    9174:	e3520005 	cmp	r2, #5
    9178:	92432057 	subls	r2, r3, #87	; 0x57
    917c:	83a02000 	movhi	r2, #0
    9180:	e5943008 	ldr	r3, [r4, #8]
    9184:	e1822201 	orr	r2, r2, r1, lsl #4
    9188:	e584200c 	str	r2, [r4, #12]
    918c:	e2833001 	add	r3, r3, #1
    9190:	e3530002 	cmp	r3, #2
    9194:	e5843008 	str	r3, [r4, #8]
    9198:	1affffe8 	bne	9140 <_ZN17Hex2BinEFSMachine8checkSumE5PhasePc+0x38>
    919c:	e5940004 	ldr	r0, [r4, #4]
    91a0:	e3a01002 	mov	r1, #2
    91a4:	e3100001 	tst	r0, #1
    91a8:	008400c0 	addeq	r0, r4, r0, asr #1
    91ac:	179420c0 	ldrne	r2, [r4, r0, asr #1]
    91b0:	15943000 	ldrne	r3, [r4]
    91b4:	05943000 	ldreq	r3, [r4]
    91b8:	17923003 	ldrne	r3, [r2, r3]
    91bc:	e3a02000 	mov	r2, #0
    91c0:	108400c0 	addne	r0, r4, r0, asr #1
    91c4:	e12fff33 	blx	r3
    91c8:	e308397c 	movw	r3, #35196	; 0x897c
    91cc:	e3a02000 	mov	r2, #0
    91d0:	e3403000 	movt	r3, #0
    91d4:	e1a01002 	mov	r1, r2
    91d8:	e5843000 	str	r3, [r4]
    91dc:	e1a00004 	mov	r0, r4
    91e0:	e5842004 	str	r2, [r4, #4]
    91e4:	ebfffde4 	bl	897c <_ZN17Hex2BinEFSMachine7initialE5PhasePc>
    91e8:	eaffffd4 	b	9140 <_ZN17Hex2BinEFSMachine8checkSumE5PhasePc+0x38>

000091ec <_ZN26InitialInteractiveLoaderSM4helpE5PhasePc>:
    91ec:	e3510001 	cmp	r1, #1
    91f0:	e92d4010 	push	{r4, lr}
    91f4:	e1a04000 	mov	r4, r0
    91f8:	0a00002a 	beq	92a8 <_ZN26InitialInteractiveLoaderSM4helpE5PhasePc+0xbc>
    91fc:	3a000024 	bcc	9294 <_ZN26InitialInteractiveLoaderSM4helpE5PhasePc+0xa8>
    9200:	e3510002 	cmp	r1, #2
    9204:	1a000020 	bne	928c <_ZN26InitialInteractiveLoaderSM4helpE5PhasePc+0xa0>
    9208:	e30a0c14 	movw	r0, #44052	; 0xac14
    920c:	e3400000 	movt	r0, #0
    9210:	ebfffccd 	bl	854c <sendString>
    9214:	e30a097c 	movw	r0, #43388	; 0xa97c
    9218:	e3400000 	movt	r0, #0
    921c:	ebfffcca 	bl	854c <sendString>
    9220:	e30a0988 	movw	r0, #43400	; 0xa988
    9224:	e3400000 	movt	r0, #0
    9228:	ebfffcc7 	bl	854c <sendString>
    922c:	e30a09d4 	movw	r0, #43476	; 0xa9d4
    9230:	e3400000 	movt	r0, #0
    9234:	ebfffcc4 	bl	854c <sendString>
    9238:	e30a0a08 	movw	r0, #43528	; 0xaa08
    923c:	e3400000 	movt	r0, #0
    9240:	ebfffcc1 	bl	854c <sendString>
    9244:	e30a0a48 	movw	r0, #43592	; 0xaa48
    9248:	e3400000 	movt	r0, #0
    924c:	ebfffcbe 	bl	854c <sendString>
    9250:	e30a0a80 	movw	r0, #43648	; 0xaa80
    9254:	e3400000 	movt	r0, #0
    9258:	ebfffcbb 	bl	854c <sendString>
    925c:	e30a0ac4 	movw	r0, #43716	; 0xaac4
    9260:	e3400000 	movt	r0, #0
    9264:	ebfffcb8 	bl	854c <sendString>
    9268:	e30a0b0c 	movw	r0, #43788	; 0xab0c
    926c:	e3400000 	movt	r0, #0
    9270:	ebfffcb5 	bl	854c <sendString>
    9274:	e30a0b30 	movw	r0, #43824	; 0xab30
    9278:	e3400000 	movt	r0, #0
    927c:	ebfffcb2 	bl	854c <sendString>
    9280:	e30a0b5c 	movw	r0, #43868	; 0xab5c
    9284:	e3400000 	movt	r0, #0
    9288:	ebfffcaf 	bl	854c <sendString>
    928c:	e3a00000 	mov	r0, #0
    9290:	e8bd8010 	pop	{r4, pc}
    9294:	e3a03000 	mov	r3, #0
    9298:	e580300c 	str	r3, [r0, #12]
    929c:	e5803008 	str	r3, [r0, #8]
    92a0:	e3a00000 	mov	r0, #0
    92a4:	e8bd8010 	pop	{r4, pc}
    92a8:	e5d23000 	ldrb	r3, [r2]
    92ac:	e353000a 	cmp	r3, #10
    92b0:	0a00001c 	beq	9328 <_ZN26InitialInteractiveLoaderSM4helpE5PhasePc+0x13c>
    92b4:	e353000d 	cmp	r3, #13
    92b8:	e5903008 	ldr	r3, [r0, #8]
    92bc:	02833005 	addeq	r3, r3, #5
    92c0:	05803008 	streq	r3, [r0, #8]
    92c4:	e3530002 	cmp	r3, #2
    92c8:	daffffef 	ble	928c <_ZN26InitialInteractiveLoaderSM4helpE5PhasePc+0xa0>
    92cc:	e30a0ba4 	movw	r0, #43940	; 0xaba4
    92d0:	e3400000 	movt	r0, #0
    92d4:	ebfffc9c 	bl	854c <sendString>
    92d8:	e5940004 	ldr	r0, [r4, #4]
    92dc:	e3a01002 	mov	r1, #2
    92e0:	e3100001 	tst	r0, #1
    92e4:	008400c0 	addeq	r0, r4, r0, asr #1
    92e8:	179420c0 	ldrne	r2, [r4, r0, asr #1]
    92ec:	15943000 	ldrne	r3, [r4]
    92f0:	05943000 	ldreq	r3, [r4]
    92f4:	17923003 	ldrne	r3, [r2, r3]
    92f8:	e3a02000 	mov	r2, #0
    92fc:	108400c0 	addne	r0, r4, r0, asr #1
    9300:	e12fff33 	blx	r3
    9304:	e3093960 	movw	r3, #39264	; 0x9960
    9308:	e3a02000 	mov	r2, #0
    930c:	e3403000 	movt	r3, #0
    9310:	e1a01002 	mov	r1, r2
    9314:	e5843000 	str	r3, [r4]
    9318:	e1a00004 	mov	r0, r4
    931c:	e5842004 	str	r2, [r4, #4]
    9320:	eb00018e 	bl	9960 <_ZN26InitialInteractiveLoaderSM7initialE5PhasePc>
    9324:	eaffffd8 	b	928c <_ZN26InitialInteractiveLoaderSM4helpE5PhasePc+0xa0>
    9328:	e5903008 	ldr	r3, [r0, #8]
    932c:	e2833003 	add	r3, r3, #3
    9330:	e5803008 	str	r3, [r0, #8]
    9334:	eaffffe2 	b	92c4 <_ZN26InitialInteractiveLoaderSM4helpE5PhasePc+0xd8>

00009338 <_ZN26InitialInteractiveLoaderSM6formatE5PhasePc>:
    9338:	e3510000 	cmp	r1, #0
    933c:	e92d4010 	push	{r4, lr}
    9340:	e1a04000 	mov	r4, r0
    9344:	05801008 	streq	r1, [r0, #8]
    9348:	0a00001f 	beq	93cc <_ZN26InitialInteractiveLoaderSM6formatE5PhasePc+0x94>
    934c:	e3510001 	cmp	r1, #1
    9350:	1a00001d 	bne	93cc <_ZN26InitialInteractiveLoaderSM6formatE5PhasePc+0x94>
    9354:	e5d23000 	ldrb	r3, [r2]
    9358:	e353000d 	cmp	r3, #13
    935c:	0a000026 	beq	93fc <_ZN26InitialInteractiveLoaderSM6formatE5PhasePc+0xc4>
    9360:	8a00001b 	bhi	93d4 <_ZN26InitialInteractiveLoaderSM6formatE5PhasePc+0x9c>
    9364:	e353000a 	cmp	r3, #10
    9368:	1a000021 	bne	93f4 <_ZN26InitialInteractiveLoaderSM6formatE5PhasePc+0xbc>
    936c:	e5903008 	ldr	r3, [r0, #8]
    9370:	e2833003 	add	r3, r3, #3
    9374:	e5803008 	str	r3, [r0, #8]
    9378:	e3530002 	cmp	r3, #2
    937c:	da000012 	ble	93cc <_ZN26InitialInteractiveLoaderSM6formatE5PhasePc+0x94>
    9380:	e5940004 	ldr	r0, [r4, #4]
    9384:	e3a01002 	mov	r1, #2
    9388:	e3100001 	tst	r0, #1
    938c:	008400c0 	addeq	r0, r4, r0, asr #1
    9390:	179420c0 	ldrne	r2, [r4, r0, asr #1]
    9394:	15943000 	ldrne	r3, [r4]
    9398:	05943000 	ldreq	r3, [r4]
    939c:	17923003 	ldrne	r3, [r2, r3]
    93a0:	e3a02000 	mov	r2, #0
    93a4:	108400c0 	addne	r0, r4, r0, asr #1
    93a8:	e12fff33 	blx	r3
    93ac:	e3093960 	movw	r3, #39264	; 0x9960
    93b0:	e3a02000 	mov	r2, #0
    93b4:	e3403000 	movt	r3, #0
    93b8:	e1a01002 	mov	r1, r2
    93bc:	e5843000 	str	r3, [r4]
    93c0:	e1a00004 	mov	r0, r4
    93c4:	e5842004 	str	r2, [r4, #4]
    93c8:	eb000164 	bl	9960 <_ZN26InitialInteractiveLoaderSM7initialE5PhasePc>
    93cc:	e3a00000 	mov	r0, #0
    93d0:	e8bd8010 	pop	{r4, pc}
    93d4:	e3530057 	cmp	r3, #87	; 0x57
    93d8:	0a000001 	beq	93e4 <_ZN26InitialInteractiveLoaderSM6formatE5PhasePc+0xac>
    93dc:	e3530077 	cmp	r3, #119	; 0x77
    93e0:	1a000003 	bne	93f4 <_ZN26InitialInteractiveLoaderSM6formatE5PhasePc+0xbc>
    93e4:	e5943008 	ldr	r3, [r4, #8]
    93e8:	e3a02004 	mov	r2, #4
    93ec:	e5842018 	str	r2, [r4, #24]
    93f0:	eaffffe0 	b	9378 <_ZN26InitialInteractiveLoaderSM6formatE5PhasePc+0x40>
    93f4:	e5943008 	ldr	r3, [r4, #8]
    93f8:	eaffffde 	b	9378 <_ZN26InitialInteractiveLoaderSM6formatE5PhasePc+0x40>
    93fc:	e5903008 	ldr	r3, [r0, #8]
    9400:	e2833005 	add	r3, r3, #5
    9404:	e5803008 	str	r3, [r0, #8]
    9408:	eaffffda 	b	9378 <_ZN26InitialInteractiveLoaderSM6formatE5PhasePc+0x40>

0000940c <_ZN26InitialInteractiveLoaderSM2goE5PhasePc>:
    940c:	e3510001 	cmp	r1, #1
    9410:	e92d4010 	push	{r4, lr}
    9414:	e1a04000 	mov	r4, r0
    9418:	0a00000c 	beq	9450 <_ZN26InitialInteractiveLoaderSM2goE5PhasePc+0x44>
    941c:	3a000006 	bcc	943c <_ZN26InitialInteractiveLoaderSM2goE5PhasePc+0x30>
    9420:	e3510002 	cmp	r1, #2
    9424:	1a000002 	bne	9434 <_ZN26InitialInteractiveLoaderSM2goE5PhasePc+0x28>
    9428:	ebfffb13 	bl	807c <disable_irq>
    942c:	e594001c 	ldr	r0, [r4, #28]
    9430:	ebfffafd 	bl	802c <GOTO>
    9434:	e3a00000 	mov	r0, #0
    9438:	e8bd8010 	pop	{r4, pc}
    943c:	e3a03000 	mov	r3, #0
    9440:	e580300c 	str	r3, [r0, #12]
    9444:	e5803008 	str	r3, [r0, #8]
    9448:	e3a00000 	mov	r0, #0
    944c:	e8bd8010 	pop	{r4, pc}
    9450:	e5d21000 	ldrb	r1, [r2]
    9454:	e351000a 	cmp	r1, #10
    9458:	0a00001f 	beq	94dc <_ZN26InitialInteractiveLoaderSM2goE5PhasePc+0xd0>
    945c:	e351000d 	cmp	r1, #13
    9460:	1a000021 	bne	94ec <_ZN26InitialInteractiveLoaderSM2goE5PhasePc+0xe0>
    9464:	e5903008 	ldr	r3, [r0, #8]
    9468:	e2833005 	add	r3, r3, #5
    946c:	e5803008 	str	r3, [r0, #8]
    9470:	e3530002 	cmp	r3, #2
    9474:	daffffee 	ble	9434 <_ZN26InitialInteractiveLoaderSM2goE5PhasePc+0x28>
    9478:	e30a0ba4 	movw	r0, #43940	; 0xaba4
    947c:	e3400000 	movt	r0, #0
    9480:	ebfffc31 	bl	854c <sendString>
    9484:	e5940004 	ldr	r0, [r4, #4]
    9488:	e3a01002 	mov	r1, #2
    948c:	e594300c 	ldr	r3, [r4, #12]
    9490:	e3100001 	tst	r0, #1
    9494:	e584301c 	str	r3, [r4, #28]
    9498:	179420c0 	ldrne	r2, [r4, r0, asr #1]
    949c:	15943000 	ldrne	r3, [r4]
    94a0:	05943000 	ldreq	r3, [r4]
    94a4:	17923003 	ldrne	r3, [r2, r3]
    94a8:	e3a02000 	mov	r2, #0
    94ac:	008400c0 	addeq	r0, r4, r0, asr #1
    94b0:	108400c0 	addne	r0, r4, r0, asr #1
    94b4:	e12fff33 	blx	r3
    94b8:	e3093960 	movw	r3, #39264	; 0x9960
    94bc:	e3a02000 	mov	r2, #0
    94c0:	e3403000 	movt	r3, #0
    94c4:	e1a01002 	mov	r1, r2
    94c8:	e5843000 	str	r3, [r4]
    94cc:	e1a00004 	mov	r0, r4
    94d0:	e5842004 	str	r2, [r4, #4]
    94d4:	eb000121 	bl	9960 <_ZN26InitialInteractiveLoaderSM7initialE5PhasePc>
    94d8:	eaffffd5 	b	9434 <_ZN26InitialInteractiveLoaderSM2goE5PhasePc+0x28>
    94dc:	e5903008 	ldr	r3, [r0, #8]
    94e0:	e2833003 	add	r3, r3, #3
    94e4:	e5803008 	str	r3, [r0, #8]
    94e8:	eaffffe0 	b	9470 <_ZN26InitialInteractiveLoaderSM2goE5PhasePc+0x64>
    94ec:	e3c12020 	bic	r2, r1, #32
    94f0:	e2413030 	sub	r3, r1, #48	; 0x30
    94f4:	e2422041 	sub	r2, r2, #65	; 0x41
    94f8:	e3530009 	cmp	r3, #9
    94fc:	83520005 	cmphi	r2, #5
    9500:	85903008 	ldrhi	r3, [r0, #8]
    9504:	8affffd9 	bhi	9470 <_ZN26InitialInteractiveLoaderSM2goE5PhasePc+0x64>
    9508:	e590000c 	ldr	r0, [r0, #12]
    950c:	ebfffe7c 	bl	8f04 <convert>
    9510:	e584000c 	str	r0, [r4, #12]
    9514:	e5943008 	ldr	r3, [r4, #8]
    9518:	eaffffd4 	b	9470 <_ZN26InitialInteractiveLoaderSM2goE5PhasePc+0x64>

0000951c <_ZN26InitialInteractiveLoaderSM7initialE5PhasePc.part.0>:
    951c:	e92d4010 	push	{r4, lr}
    9520:	e1a04000 	mov	r4, r0
    9524:	e5d13000 	ldrb	r3, [r1]
    9528:	e243300a 	sub	r3, r3, #10
    952c:	e353006d 	cmp	r3, #109	; 0x6d
    9530:	979ff103 	ldrls	pc, [pc, r3, lsl #2]
    9534:	ea000103 	b	9948 <_ZN26InitialInteractiveLoaderSM7initialE5PhasePc.part.0+0x42c>
    9538:	0000973c 	andeq	r9, r0, ip, lsr r7
    953c:	00009948 	andeq	r9, r0, r8, asr #18
    9540:	00009948 	andeq	r9, r0, r8, asr #18
    9544:	0000973c 	andeq	r9, r0, ip, lsr r7
    9548:	00009948 	andeq	r9, r0, r8, asr #18
    954c:	00009948 	andeq	r9, r0, r8, asr #18
    9550:	00009948 	andeq	r9, r0, r8, asr #18
    9554:	00009948 	andeq	r9, r0, r8, asr #18
    9558:	00009948 	andeq	r9, r0, r8, asr #18
    955c:	00009948 	andeq	r9, r0, r8, asr #18
    9560:	00009948 	andeq	r9, r0, r8, asr #18
    9564:	00009948 	andeq	r9, r0, r8, asr #18
    9568:	00009948 	andeq	r9, r0, r8, asr #18
    956c:	00009948 	andeq	r9, r0, r8, asr #18
    9570:	00009948 	andeq	r9, r0, r8, asr #18
    9574:	00009948 	andeq	r9, r0, r8, asr #18
    9578:	00009948 	andeq	r9, r0, r8, asr #18
    957c:	00009948 	andeq	r9, r0, r8, asr #18
    9580:	00009948 	andeq	r9, r0, r8, asr #18
    9584:	00009948 	andeq	r9, r0, r8, asr #18
    9588:	00009948 	andeq	r9, r0, r8, asr #18
    958c:	00009948 	andeq	r9, r0, r8, asr #18
    9590:	00009948 	andeq	r9, r0, r8, asr #18
    9594:	00009948 	andeq	r9, r0, r8, asr #18
    9598:	00009948 	andeq	r9, r0, r8, asr #18
    959c:	00009948 	andeq	r9, r0, r8, asr #18
    95a0:	00009948 	andeq	r9, r0, r8, asr #18
    95a4:	00009948 	andeq	r9, r0, r8, asr #18
    95a8:	00009948 	andeq	r9, r0, r8, asr #18
    95ac:	00009948 	andeq	r9, r0, r8, asr #18
    95b0:	00009948 	andeq	r9, r0, r8, asr #18
    95b4:	00009948 	andeq	r9, r0, r8, asr #18
    95b8:	00009948 	andeq	r9, r0, r8, asr #18
    95bc:	00009948 	andeq	r9, r0, r8, asr #18
    95c0:	00009948 	andeq	r9, r0, r8, asr #18
    95c4:	00009948 	andeq	r9, r0, r8, asr #18
    95c8:	00009948 	andeq	r9, r0, r8, asr #18
    95cc:	00009948 	andeq	r9, r0, r8, asr #18
    95d0:	00009948 	andeq	r9, r0, r8, asr #18
    95d4:	00009948 	andeq	r9, r0, r8, asr #18
    95d8:	00009948 	andeq	r9, r0, r8, asr #18
    95dc:	00009948 	andeq	r9, r0, r8, asr #18
    95e0:	00009948 	andeq	r9, r0, r8, asr #18
    95e4:	00009948 	andeq	r9, r0, r8, asr #18
    95e8:	00009948 	andeq	r9, r0, r8, asr #18
    95ec:	00009948 	andeq	r9, r0, r8, asr #18
    95f0:	00009948 	andeq	r9, r0, r8, asr #18
    95f4:	00009948 	andeq	r9, r0, r8, asr #18
    95f8:	00009948 	andeq	r9, r0, r8, asr #18
    95fc:	00009948 	andeq	r9, r0, r8, asr #18
    9600:	00009948 	andeq	r9, r0, r8, asr #18
    9604:	00009948 	andeq	r9, r0, r8, asr #18
    9608:	00009948 	andeq	r9, r0, r8, asr #18
    960c:	00009948 	andeq	r9, r0, r8, asr #18
    9610:	00009948 	andeq	r9, r0, r8, asr #18
    9614:	00009948 	andeq	r9, r0, r8, asr #18
    9618:	000098d8 	ldrdeq	r9, [r0], -r8
    961c:	00009948 	andeq	r9, r0, r8, asr #18
    9620:	000098f8 	strdeq	r9, [r0], -r8
    9624:	00009948 	andeq	r9, r0, r8, asr #18
    9628:	00009948 	andeq	r9, r0, r8, asr #18
    962c:	00009798 	muleq	r0, r8, r7
    9630:	000097e8 	andeq	r9, r0, r8, ror #15
    9634:	00009948 	andeq	r9, r0, r8, asr #18
    9638:	00009948 	andeq	r9, r0, r8, asr #18
    963c:	00009948 	andeq	r9, r0, r8, asr #18
    9640:	00009838 	andeq	r9, r0, r8, lsr r8
    9644:	00009888 	andeq	r9, r0, r8, lsl #17
    9648:	00009948 	andeq	r9, r0, r8, asr #18
    964c:	00009948 	andeq	r9, r0, r8, asr #18
    9650:	00009948 	andeq	r9, r0, r8, asr #18
    9654:	00009948 	andeq	r9, r0, r8, asr #18
    9658:	00009948 	andeq	r9, r0, r8, asr #18
    965c:	00009948 	andeq	r9, r0, r8, asr #18
    9660:	00009948 	andeq	r9, r0, r8, asr #18
    9664:	00009948 	andeq	r9, r0, r8, asr #18
    9668:	00009948 	andeq	r9, r0, r8, asr #18
    966c:	000096f0 	strdeq	r9, [r0], -r0
    9670:	00009948 	andeq	r9, r0, r8, asr #18
    9674:	00009948 	andeq	r9, r0, r8, asr #18
    9678:	00009948 	andeq	r9, r0, r8, asr #18
    967c:	00009948 	andeq	r9, r0, r8, asr #18
    9680:	00009948 	andeq	r9, r0, r8, asr #18
    9684:	00009948 	andeq	r9, r0, r8, asr #18
    9688:	00009948 	andeq	r9, r0, r8, asr #18
    968c:	00009948 	andeq	r9, r0, r8, asr #18
    9690:	00009948 	andeq	r9, r0, r8, asr #18
    9694:	00009948 	andeq	r9, r0, r8, asr #18
    9698:	000098d8 	ldrdeq	r9, [r0], -r8
    969c:	00009948 	andeq	r9, r0, r8, asr #18
    96a0:	000098f8 	strdeq	r9, [r0], -r8
    96a4:	00009948 	andeq	r9, r0, r8, asr #18
    96a8:	00009948 	andeq	r9, r0, r8, asr #18
    96ac:	00009798 	muleq	r0, r8, r7
    96b0:	000097e8 	andeq	r9, r0, r8, ror #15
    96b4:	00009948 	andeq	r9, r0, r8, asr #18
    96b8:	00009948 	andeq	r9, r0, r8, asr #18
    96bc:	00009948 	andeq	r9, r0, r8, asr #18
    96c0:	00009838 	andeq	r9, r0, r8, lsr r8
    96c4:	00009888 	andeq	r9, r0, r8, lsl #17
    96c8:	00009948 	andeq	r9, r0, r8, asr #18
    96cc:	00009948 	andeq	r9, r0, r8, asr #18
    96d0:	00009948 	andeq	r9, r0, r8, asr #18
    96d4:	00009948 	andeq	r9, r0, r8, asr #18
    96d8:	00009948 	andeq	r9, r0, r8, asr #18
    96dc:	00009948 	andeq	r9, r0, r8, asr #18
    96e0:	00009948 	andeq	r9, r0, r8, asr #18
    96e4:	00009948 	andeq	r9, r0, r8, asr #18
    96e8:	00009948 	andeq	r9, r0, r8, asr #18
    96ec:	000096f0 	strdeq	r9, [r0], -r0
    96f0:	e5900004 	ldr	r0, [r0, #4]
    96f4:	e3a03002 	mov	r3, #2
    96f8:	e5843018 	str	r3, [r4, #24]
    96fc:	e3100001 	tst	r0, #1
    9700:	1a000091 	bne	994c <_ZN26InitialInteractiveLoaderSM7initialE5PhasePc.part.0+0x430>
    9704:	e08400c0 	add	r0, r4, r0, asr #1
    9708:	e5943000 	ldr	r3, [r4]
    970c:	e3a01002 	mov	r1, #2
    9710:	e3a02000 	mov	r2, #0
    9714:	e12fff33 	blx	r3
    9718:	e3093338 	movw	r3, #37688	; 0x9338
    971c:	e3a02000 	mov	r2, #0
    9720:	e3403000 	movt	r3, #0
    9724:	e1a00004 	mov	r0, r4
    9728:	e5843000 	str	r3, [r4]
    972c:	e1a01002 	mov	r1, r2
    9730:	e5842004 	str	r2, [r4, #4]
    9734:	e8bd4010 	pop	{r4, lr}
    9738:	eafffefe 	b	9338 <_ZN26InitialInteractiveLoaderSM6formatE5PhasePc>
    973c:	e30a0ba4 	movw	r0, #43940	; 0xaba4
    9740:	e3400000 	movt	r0, #0
    9744:	ebfffb80 	bl	854c <sendString>
    9748:	e5940004 	ldr	r0, [r4, #4]
    974c:	e3a01002 	mov	r1, #2
    9750:	e3100001 	tst	r0, #1
    9754:	008400c0 	addeq	r0, r4, r0, asr #1
    9758:	179420c0 	ldrne	r2, [r4, r0, asr #1]
    975c:	15943000 	ldrne	r3, [r4]
    9760:	05943000 	ldreq	r3, [r4]
    9764:	17923003 	ldrne	r3, [r2, r3]
    9768:	e3a02000 	mov	r2, #0
    976c:	108400c0 	addne	r0, r4, r0, asr #1
    9770:	e12fff33 	blx	r3
    9774:	e3093960 	movw	r3, #39264	; 0x9960
    9778:	e3a02000 	mov	r2, #0
    977c:	e3403000 	movt	r3, #0
    9780:	e1a00004 	mov	r0, r4
    9784:	e5843000 	str	r3, [r4]
    9788:	e1a01002 	mov	r1, r2
    978c:	e5842004 	str	r2, [r4, #4]
    9790:	e8bd4010 	pop	{r4, lr}
    9794:	ea000071 	b	9960 <_ZN26InitialInteractiveLoaderSM7initialE5PhasePc>
    9798:	e5900004 	ldr	r0, [r0, #4]
    979c:	e3a01002 	mov	r1, #2
    97a0:	e3100001 	tst	r0, #1
    97a4:	008400c0 	addeq	r0, r4, r0, asr #1
    97a8:	179420c0 	ldrne	r2, [r4, r0, asr #1]
    97ac:	15943000 	ldrne	r3, [r4]
    97b0:	05943000 	ldreq	r3, [r4]
    97b4:	17923003 	ldrne	r3, [r2, r3]
    97b8:	e3a02000 	mov	r2, #0
    97bc:	108400c0 	addne	r0, r4, r0, asr #1
    97c0:	e12fff33 	blx	r3
    97c4:	e309340c 	movw	r3, #37900	; 0x940c
    97c8:	e3a02000 	mov	r2, #0
    97cc:	e3403000 	movt	r3, #0
    97d0:	e1a00004 	mov	r0, r4
    97d4:	e5843000 	str	r3, [r4]
    97d8:	e1a01002 	mov	r1, r2
    97dc:	e5842004 	str	r2, [r4, #4]
    97e0:	e8bd4010 	pop	{r4, lr}
    97e4:	eaffff08 	b	940c <_ZN26InitialInteractiveLoaderSM2goE5PhasePc>
    97e8:	e5900004 	ldr	r0, [r0, #4]
    97ec:	e3a01002 	mov	r1, #2
    97f0:	e3100001 	tst	r0, #1
    97f4:	008400c0 	addeq	r0, r4, r0, asr #1
    97f8:	179420c0 	ldrne	r2, [r4, r0, asr #1]
    97fc:	15943000 	ldrne	r3, [r4]
    9800:	05943000 	ldreq	r3, [r4]
    9804:	17923003 	ldrne	r3, [r2, r3]
    9808:	e3a02000 	mov	r2, #0
    980c:	108400c0 	addne	r0, r4, r0, asr #1
    9810:	e12fff33 	blx	r3
    9814:	e30931ec 	movw	r3, #37356	; 0x91ec
    9818:	e3a02000 	mov	r2, #0
    981c:	e3403000 	movt	r3, #0
    9820:	e1a00004 	mov	r0, r4
    9824:	e5843000 	str	r3, [r4]
    9828:	e1a01002 	mov	r1, r2
    982c:	e5842004 	str	r2, [r4, #4]
    9830:	e8bd4010 	pop	{r4, lr}
    9834:	eafffe6c 	b	91ec <_ZN26InitialInteractiveLoaderSM4helpE5PhasePc>
    9838:	e5900004 	ldr	r0, [r0, #4]
    983c:	e3a01002 	mov	r1, #2
    9840:	e3100001 	tst	r0, #1
    9844:	008400c0 	addeq	r0, r4, r0, asr #1
    9848:	179420c0 	ldrne	r2, [r4, r0, asr #1]
    984c:	15943000 	ldrne	r3, [r4]
    9850:	05943000 	ldreq	r3, [r4]
    9854:	17923003 	ldrne	r3, [r2, r3]
    9858:	e3a02000 	mov	r2, #0
    985c:	108400c0 	addne	r0, r4, r0, asr #1
    9860:	e12fff33 	blx	r3
    9864:	e3093eac 	movw	r3, #40620	; 0x9eac
    9868:	e3a02000 	mov	r2, #0
    986c:	e3403000 	movt	r3, #0
    9870:	e1a00004 	mov	r0, r4
    9874:	e5843000 	str	r3, [r4]
    9878:	e1a01002 	mov	r1, r2
    987c:	e5842004 	str	r2, [r4, #4]
    9880:	e8bd4010 	pop	{r4, lr}
    9884:	ea000188 	b	9eac <_ZN26InitialInteractiveLoaderSM4loadE5PhasePc>
    9888:	e5900004 	ldr	r0, [r0, #4]
    988c:	e3a01002 	mov	r1, #2
    9890:	e3100001 	tst	r0, #1
    9894:	008400c0 	addeq	r0, r4, r0, asr #1
    9898:	179420c0 	ldrne	r2, [r4, r0, asr #1]
    989c:	15943000 	ldrne	r3, [r4]
    98a0:	05943000 	ldreq	r3, [r4]
    98a4:	17923003 	ldrne	r3, [r2, r3]
    98a8:	e3a02000 	mov	r2, #0
    98ac:	108400c0 	addne	r0, r4, r0, asr #1
    98b0:	e12fff33 	blx	r3
    98b4:	e3093a80 	movw	r3, #39552	; 0x9a80
    98b8:	e3a02000 	mov	r2, #0
    98bc:	e3403000 	movt	r3, #0
    98c0:	e1a00004 	mov	r0, r4
    98c4:	e5843000 	str	r3, [r4]
    98c8:	e1a01002 	mov	r1, r2
    98cc:	e5842004 	str	r2, [r4, #4]
    98d0:	e8bd4010 	pop	{r4, lr}
    98d4:	ea000069 	b	9a80 <_ZN26InitialInteractiveLoaderSM10outputDumpE5PhasePc>
    98d8:	e5900004 	ldr	r0, [r0, #4]
    98dc:	e3a03001 	mov	r3, #1
    98e0:	e5843018 	str	r3, [r4, #24]
    98e4:	e3100001 	tst	r0, #1
    98e8:	1a000017 	bne	994c <_ZN26InitialInteractiveLoaderSM7initialE5PhasePc.part.0+0x430>
    98ec:	e0840350 	add	r0, r4, r0, asr r3
    98f0:	e5943000 	ldr	r3, [r4]
    98f4:	eaffff84 	b	970c <_ZN26InitialInteractiveLoaderSM7initialE5PhasePc.part.0+0x1f0>
    98f8:	e5900004 	ldr	r0, [r0, #4]
    98fc:	e3a01002 	mov	r1, #2
    9900:	e3100001 	tst	r0, #1
    9904:	008400c0 	addeq	r0, r4, r0, asr #1
    9908:	179420c0 	ldrne	r2, [r4, r0, asr #1]
    990c:	15943000 	ldrne	r3, [r4]
    9910:	05943000 	ldreq	r3, [r4]
    9914:	17923003 	ldrne	r3, [r2, r3]
    9918:	e3a02000 	mov	r2, #0
    991c:	108400c0 	addne	r0, r4, r0, asr #1
    9920:	e12fff33 	blx	r3
    9924:	e3093c94 	movw	r3, #40084	; 0x9c94
    9928:	e3a02000 	mov	r2, #0
    992c:	e3403000 	movt	r3, #0
    9930:	e1a00004 	mov	r0, r4
    9934:	e5843000 	str	r3, [r4]
    9938:	e1a01002 	mov	r1, r2
    993c:	e5842004 	str	r2, [r4, #4]
    9940:	e8bd4010 	pop	{r4, lr}
    9944:	ea0000d2 	b	9c94 <_ZN26InitialInteractiveLoaderSM7displayE5PhasePc>
    9948:	e8bd8010 	pop	{r4, pc}
    994c:	e79420c0 	ldr	r2, [r4, r0, asr #1]
    9950:	e5943000 	ldr	r3, [r4]
    9954:	e08400c0 	add	r0, r4, r0, asr #1
    9958:	e7923003 	ldr	r3, [r2, r3]
    995c:	eaffff6a 	b	970c <_ZN26InitialInteractiveLoaderSM7initialE5PhasePc.part.0+0x1f0>

00009960 <_ZN26InitialInteractiveLoaderSM7initialE5PhasePc>:
    9960:	e92d4038 	push	{r3, r4, r5, lr}
    9964:	e2514000 	subs	r4, r1, #0
    9968:	e1a05000 	mov	r5, r0
    996c:	0a000005 	beq	9988 <_ZN26InitialInteractiveLoaderSM7initialE5PhasePc+0x28>
    9970:	e3540001 	cmp	r4, #1
    9974:	1a000001 	bne	9980 <_ZN26InitialInteractiveLoaderSM7initialE5PhasePc+0x20>
    9978:	e1a01002 	mov	r1, r2
    997c:	ebfffee6 	bl	951c <_ZN26InitialInteractiveLoaderSM7initialE5PhasePc.part.0>
    9980:	e3a00000 	mov	r0, #0
    9984:	e8bd8038 	pop	{r3, r4, r5, pc}
    9988:	e30a0c34 	movw	r0, #44084	; 0xac34
    998c:	e3400000 	movt	r0, #0
    9990:	ebfffaed 	bl	854c <sendString>
    9994:	e5854008 	str	r4, [r5, #8]
    9998:	e3a00000 	mov	r0, #0
    999c:	e585400c 	str	r4, [r5, #12]
    99a0:	e8bd8038 	pop	{r3, r4, r5, pc}

000099a4 <_ZN26InitialInteractiveLoaderSMC1Ev>:
    99a4:	e92d4038 	push	{r3, r4, r5, lr}
    99a8:	e3093960 	movw	r3, #39264	; 0x9960
    99ac:	e3403000 	movt	r3, #0
    99b0:	e1a04000 	mov	r4, r0
    99b4:	e5803000 	str	r3, [r0]
    99b8:	e3a05000 	mov	r5, #0
    99bc:	e5845004 	str	r5, [r4, #4]
    99c0:	e30a0c34 	movw	r0, #44084	; 0xac34
    99c4:	e3400000 	movt	r0, #0
    99c8:	ebfffadf 	bl	854c <sendString>
    99cc:	e5845008 	str	r5, [r4, #8]
    99d0:	e3a03001 	mov	r3, #1
    99d4:	e584500c 	str	r5, [r4, #12]
    99d8:	e1a00004 	mov	r0, r4
    99dc:	e5843018 	str	r3, [r4, #24]
    99e0:	e8bd8038 	pop	{r3, r4, r5, pc}

000099e4 <_Z13int2hexStringjPci>:
    99e4:	e3520000 	cmp	r2, #0
    99e8:	e1a03000 	mov	r3, r0
    99ec:	e92d0030 	push	{r4, r5}
    99f0:	c30a5c48 	movwgt	r5, #44104	; 0xac48
    99f4:	e0810002 	add	r0, r1, r2
    99f8:	c3405000 	movtgt	r5, #0
    99fc:	c1a0c000 	movgt	ip, r0
    9a00:	da000005 	ble	9a1c <_Z13int2hexStringjPci+0x38>
    9a04:	e203400f 	and	r4, r3, #15
    9a08:	e2522001 	subs	r2, r2, #1
    9a0c:	e1a03223 	lsr	r3, r3, #4
    9a10:	e7d54004 	ldrb	r4, [r5, r4]
    9a14:	e56c4001 	strb	r4, [ip, #-1]!
    9a18:	1afffff9 	bne	9a04 <_Z13int2hexStringjPci+0x20>
    9a1c:	e8bd0030 	pop	{r4, r5}
    9a20:	e12fff1e 	bx	lr

00009a24 <_ZN26InitialInteractiveLoaderSM5debugEv>:
    9a24:	e12fff1e 	bx	lr

00009a28 <_ZN26InitialInteractiveLoaderSM13runOutputDumpEv>:
    9a28:	e92d4070 	push	{r4, r5, r6, lr}
    9a2c:	e30e5fff 	movw	r5, #61439	; 0xefff
    9a30:	e3435000 	movt	r5, #12288	; 0x3000
    9a34:	e24dd078 	sub	sp, sp, #120	; 0x78
    9a38:	e3a04243 	mov	r4, #805306372	; 0x30000004
    9a3c:	e3a06203 	mov	r6, #805306368	; 0x30000000
    9a40:	e5963000 	ldr	r3, [r6]
    9a44:	e1540003 	cmp	r4, r3
    9a48:	2a00000a 	bcs	9a78 <_ZN26InitialInteractiveLoaderSM13runOutputDumpEv+0x50>
    9a4c:	e1a03004 	mov	r3, r4
    9a50:	e24d1001 	sub	r1, sp, #1
    9a54:	e4d32001 	ldrb	r2, [r3], #1
    9a58:	e3520000 	cmp	r2, #0
    9a5c:	e1a04003 	mov	r4, r3
    9a60:	e5e12001 	strb	r2, [r1, #1]!
    9a64:	1afffffa 	bne	9a54 <_ZN26InitialInteractiveLoaderSM13runOutputDumpEv+0x2c>
    9a68:	e1a0000d 	mov	r0, sp
    9a6c:	ebfffab6 	bl	854c <sendString>
    9a70:	e1540005 	cmp	r4, r5
    9a74:	9afffff1 	bls	9a40 <_ZN26InitialInteractiveLoaderSM13runOutputDumpEv+0x18>
    9a78:	e28dd078 	add	sp, sp, #120	; 0x78
    9a7c:	e8bd8070 	pop	{r4, r5, r6, pc}

00009a80 <_ZN26InitialInteractiveLoaderSM10outputDumpE5PhasePc>:
    9a80:	e3510001 	cmp	r1, #1
    9a84:	e92d4010 	push	{r4, lr}
    9a88:	e1a04000 	mov	r4, r0
    9a8c:	0a000009 	beq	9ab8 <_ZN26InitialInteractiveLoaderSM10outputDumpE5PhasePc+0x38>
    9a90:	3a000004 	bcc	9aa8 <_ZN26InitialInteractiveLoaderSM10outputDumpE5PhasePc+0x28>
    9a94:	e3510002 	cmp	r1, #2
    9a98:	1a000000 	bne	9aa0 <_ZN26InitialInteractiveLoaderSM10outputDumpE5PhasePc+0x20>
    9a9c:	ebffffe1 	bl	9a28 <_ZN26InitialInteractiveLoaderSM13runOutputDumpEv>
    9aa0:	e3a00000 	mov	r0, #0
    9aa4:	e8bd8010 	pop	{r4, pc}
    9aa8:	e3a03000 	mov	r3, #0
    9aac:	e5803008 	str	r3, [r0, #8]
    9ab0:	e3a00000 	mov	r0, #0
    9ab4:	e8bd8010 	pop	{r4, pc}
    9ab8:	e5d23000 	ldrb	r3, [r2]
    9abc:	e353000a 	cmp	r3, #10
    9ac0:	0a00001c 	beq	9b38 <_ZN26InitialInteractiveLoaderSM10outputDumpE5PhasePc+0xb8>
    9ac4:	e353000d 	cmp	r3, #13
    9ac8:	e5903008 	ldr	r3, [r0, #8]
    9acc:	02833005 	addeq	r3, r3, #5
    9ad0:	05803008 	streq	r3, [r0, #8]
    9ad4:	e3530002 	cmp	r3, #2
    9ad8:	dafffff0 	ble	9aa0 <_ZN26InitialInteractiveLoaderSM10outputDumpE5PhasePc+0x20>
    9adc:	e30a0ba4 	movw	r0, #43940	; 0xaba4
    9ae0:	e3400000 	movt	r0, #0
    9ae4:	ebfffa98 	bl	854c <sendString>
    9ae8:	e5940004 	ldr	r0, [r4, #4]
    9aec:	e3a01002 	mov	r1, #2
    9af0:	e3100001 	tst	r0, #1
    9af4:	008400c0 	addeq	r0, r4, r0, asr #1
    9af8:	179420c0 	ldrne	r2, [r4, r0, asr #1]
    9afc:	15943000 	ldrne	r3, [r4]
    9b00:	05943000 	ldreq	r3, [r4]
    9b04:	17923003 	ldrne	r3, [r2, r3]
    9b08:	e3a02000 	mov	r2, #0
    9b0c:	108400c0 	addne	r0, r4, r0, asr #1
    9b10:	e12fff33 	blx	r3
    9b14:	e3093960 	movw	r3, #39264	; 0x9960
    9b18:	e3a02000 	mov	r2, #0
    9b1c:	e3403000 	movt	r3, #0
    9b20:	e1a01002 	mov	r1, r2
    9b24:	e5843000 	str	r3, [r4]
    9b28:	e1a00004 	mov	r0, r4
    9b2c:	e5842004 	str	r2, [r4, #4]
    9b30:	ebffff8a 	bl	9960 <_ZN26InitialInteractiveLoaderSM7initialE5PhasePc>
    9b34:	eaffffd9 	b	9aa0 <_ZN26InitialInteractiveLoaderSM10outputDumpE5PhasePc+0x20>
    9b38:	e5903008 	ldr	r3, [r0, #8]
    9b3c:	e2833003 	add	r3, r3, #3
    9b40:	e5803008 	str	r3, [r0, #8]
    9b44:	eaffffe2 	b	9ad4 <_ZN26InitialInteractiveLoaderSM10outputDumpE5PhasePc+0x54>

00009b48 <_ZN26InitialInteractiveLoaderSM10runCommandEii>:
    9b48:	e92d4ff0 	push	{r4, r5, r6, r7, r8, r9, sl, fp, lr}
    9b4c:	e2528000 	subs	r8, r2, #0
    9b50:	e24dd064 	sub	sp, sp, #100	; 0x64
    9b54:	e1a06001 	mov	r6, r1
    9b58:	e58d100c 	str	r1, [sp, #12]
    9b5c:	e58d0008 	str	r0, [sp, #8]
    9b60:	da000049 	ble	9c8c <_ZN26InitialInteractiveLoaderSM10runCommandEii+0x144>
    9b64:	e30a4c48 	movw	r4, #44104	; 0xac48
    9b68:	e28d100f 	add	r1, sp, #15
    9b6c:	e3404000 	movt	r4, #0
    9b70:	e58d1000 	str	r1, [sp]
    9b74:	e59d200c 	ldr	r2, [sp, #12]
    9b78:	e28d3017 	add	r3, sp, #23
    9b7c:	e202100f 	and	r1, r2, #15
    9b80:	e1a02222 	lsr	r2, r2, #4
    9b84:	e7d41001 	ldrb	r1, [r4, r1]
    9b88:	e4431001 	strb	r1, [r3], #-1
    9b8c:	e59d1000 	ldr	r1, [sp]
    9b90:	e1530001 	cmp	r3, r1
    9b94:	1afffff8 	bne	9b7c <_ZN26InitialInteractiveLoaderSM10runCommandEii+0x34>
    9b98:	e3a0b000 	mov	fp, #0
    9b9c:	e28d0019 	add	r0, sp, #25
    9ba0:	e1a02008 	mov	r2, r8
    9ba4:	e3a0303e 	mov	r3, #62	; 0x3e
    9ba8:	e5cd3018 	strb	r3, [sp, #24]
    9bac:	e3520000 	cmp	r2, #0
    9bb0:	d3a03000 	movle	r3, #0
    9bb4:	c3a03001 	movgt	r3, #1
    9bb8:	e35b000f 	cmp	fp, #15
    9bbc:	c3a03000 	movgt	r3, #0
    9bc0:	e3530000 	cmp	r3, #0
    9bc4:	0a000023 	beq	9c58 <_ZN26InitialInteractiveLoaderSM10runCommandEii+0x110>
    9bc8:	e59d3008 	ldr	r3, [sp, #8]
    9bcc:	e2861004 	add	r1, r6, #4
    9bd0:	e596e000 	ldr	lr, [r6]
    9bd4:	e5937018 	ldr	r7, [r3, #24]
    9bd8:	e58d1004 	str	r1, [sp, #4]
    9bdc:	e1a05087 	lsl	r5, r7, #1
    9be0:	e287a004 	add	sl, r7, #4
    9be4:	e062a00a 	rsb	sl, r2, sl
    9be8:	e2859001 	add	r9, r5, #1
    9bec:	e067c002 	rsb	ip, r7, r2
    9bf0:	e1a06187 	lsl	r6, r7, #3
    9bf4:	e2678000 	rsb	r8, r7, #0
    9bf8:	e3550000 	cmp	r5, #0
    9bfc:	e3a03020 	mov	r3, #32
    9c00:	e5c03000 	strb	r3, [r0]
    9c04:	c1a0300e 	movgt	r3, lr
    9c08:	c0802005 	addgt	r2, r0, r5
    9c0c:	da000005 	ble	9c28 <_ZN26InitialInteractiveLoaderSM10runCommandEii+0xe0>
    9c10:	e203100f 	and	r1, r3, #15
    9c14:	e1a03223 	lsr	r3, r3, #4
    9c18:	e7d41001 	ldrb	r1, [r4, r1]
    9c1c:	e4421001 	strb	r1, [r2], #-1
    9c20:	e1520000 	cmp	r2, r0
    9c24:	1afffff9 	bne	9c10 <_ZN26InitialInteractiveLoaderSM10runCommandEii+0xc8>
    9c28:	e35c0000 	cmp	ip, #0
    9c2c:	e1a0200c 	mov	r2, ip
    9c30:	e0800009 	add	r0, r0, r9
    9c34:	e1a0e63e 	lsr	lr, lr, r6
    9c38:	e08bb007 	add	fp, fp, r7
    9c3c:	da000003 	ble	9c50 <_ZN26InitialInteractiveLoaderSM10runCommandEii+0x108>
    9c40:	e08cc008 	add	ip, ip, r8
    9c44:	e08a300c 	add	r3, sl, ip
    9c48:	e3530000 	cmp	r3, #0
    9c4c:	caffffe9 	bgt	9bf8 <_ZN26InitialInteractiveLoaderSM10runCommandEii+0xb0>
    9c50:	e59d6004 	ldr	r6, [sp, #4]
    9c54:	eaffffd4 	b	9bac <_ZN26InitialInteractiveLoaderSM10runCommandEii+0x64>
    9c58:	e5c03002 	strb	r3, [r0, #2]
    9c5c:	e3a0300d 	mov	r3, #13
    9c60:	e5c03000 	strb	r3, [r0]
    9c64:	e3a0300a 	mov	r3, #10
    9c68:	e5c03001 	strb	r3, [r0, #1]
    9c6c:	e28d0010 	add	r0, sp, #16
    9c70:	e1a08002 	mov	r8, r2
    9c74:	ebfffa34 	bl	854c <sendString>
    9c78:	e59d100c 	ldr	r1, [sp, #12]
    9c7c:	e3580000 	cmp	r8, #0
    9c80:	e2811010 	add	r1, r1, #16
    9c84:	e58d100c 	str	r1, [sp, #12]
    9c88:	caffffb9 	bgt	9b74 <_ZN26InitialInteractiveLoaderSM10runCommandEii+0x2c>
    9c8c:	e28dd064 	add	sp, sp, #100	; 0x64
    9c90:	e8bd8ff0 	pop	{r4, r5, r6, r7, r8, r9, sl, fp, pc}

00009c94 <_ZN26InitialInteractiveLoaderSM7displayE5PhasePc>:
    9c94:	e3510001 	cmp	r1, #1
    9c98:	e92d4010 	push	{r4, lr}
    9c9c:	e1a04000 	mov	r4, r0
    9ca0:	0a000011 	beq	9cec <_ZN26InitialInteractiveLoaderSM7displayE5PhasePc+0x58>
    9ca4:	3a00000a 	bcc	9cd4 <_ZN26InitialInteractiveLoaderSM7displayE5PhasePc+0x40>
    9ca8:	e3510002 	cmp	r1, #2
    9cac:	1a000006 	bne	9ccc <_ZN26InitialInteractiveLoaderSM7displayE5PhasePc+0x38>
    9cb0:	e5902028 	ldr	r2, [r0, #40]	; 0x28
    9cb4:	e5901020 	ldr	r1, [r0, #32]
    9cb8:	ebffffa2 	bl	9b48 <_ZN26InitialInteractiveLoaderSM10runCommandEii>
    9cbc:	e5942020 	ldr	r2, [r4, #32]
    9cc0:	e5943028 	ldr	r3, [r4, #40]	; 0x28
    9cc4:	e0823003 	add	r3, r2, r3
    9cc8:	e5843020 	str	r3, [r4, #32]
    9ccc:	e3a00000 	mov	r0, #0
    9cd0:	e8bd8010 	pop	{r4, pc}
    9cd4:	e3a03000 	mov	r3, #0
    9cd8:	e580300c 	str	r3, [r0, #12]
    9cdc:	e5803008 	str	r3, [r0, #8]
    9ce0:	e5803030 	str	r3, [r0, #48]	; 0x30
    9ce4:	e3a00000 	mov	r0, #0
    9ce8:	e8bd8010 	pop	{r4, pc}
    9cec:	e5d21000 	ldrb	r1, [r2]
    9cf0:	e351000d 	cmp	r1, #13
    9cf4:	0a00000b 	beq	9d28 <_ZN26InitialInteractiveLoaderSM7displayE5PhasePc+0x94>
    9cf8:	e351002c 	cmp	r1, #44	; 0x2c
    9cfc:	0a000037 	beq	9de0 <_ZN26InitialInteractiveLoaderSM7displayE5PhasePc+0x14c>
    9d00:	e351000a 	cmp	r1, #10
    9d04:	0a000031 	beq	9dd0 <_ZN26InitialInteractiveLoaderSM7displayE5PhasePc+0x13c>
    9d08:	e3c12020 	bic	r2, r1, #32
    9d0c:	e2413030 	sub	r3, r1, #48	; 0x30
    9d10:	e2422041 	sub	r2, r2, #65	; 0x41
    9d14:	e3530009 	cmp	r3, #9
    9d18:	83520005 	cmphi	r2, #5
    9d1c:	9a000038 	bls	9e04 <_ZN26InitialInteractiveLoaderSM7displayE5PhasePc+0x170>
    9d20:	e5903008 	ldr	r3, [r0, #8]
    9d24:	ea000002 	b	9d34 <_ZN26InitialInteractiveLoaderSM7displayE5PhasePc+0xa0>
    9d28:	e5903008 	ldr	r3, [r0, #8]
    9d2c:	e2833005 	add	r3, r3, #5
    9d30:	e5803008 	str	r3, [r0, #8]
    9d34:	e3530002 	cmp	r3, #2
    9d38:	daffffe3 	ble	9ccc <_ZN26InitialInteractiveLoaderSM7displayE5PhasePc+0x38>
    9d3c:	e5943030 	ldr	r3, [r4, #48]	; 0x30
    9d40:	e3530000 	cmp	r3, #0
    9d44:	1a00001a 	bne	9db4 <_ZN26InitialInteractiveLoaderSM7displayE5PhasePc+0x120>
    9d48:	e594300c 	ldr	r3, [r4, #12]
    9d4c:	e3530000 	cmp	r3, #0
    9d50:	c5843020 	strgt	r3, [r4, #32]
    9d54:	e30a0ba4 	movw	r0, #43940	; 0xaba4
    9d58:	e3400000 	movt	r0, #0
    9d5c:	ebfff9fa 	bl	854c <sendString>
    9d60:	e5940004 	ldr	r0, [r4, #4]
    9d64:	e3a01002 	mov	r1, #2
    9d68:	e3100001 	tst	r0, #1
    9d6c:	008400c0 	addeq	r0, r4, r0, asr #1
    9d70:	179420c0 	ldrne	r2, [r4, r0, asr #1]
    9d74:	15943000 	ldrne	r3, [r4]
    9d78:	05943000 	ldreq	r3, [r4]
    9d7c:	17923003 	ldrne	r3, [r2, r3]
    9d80:	e3a02000 	mov	r2, #0
    9d84:	108400c0 	addne	r0, r4, r0, asr #1
    9d88:	e12fff33 	blx	r3
    9d8c:	e3093960 	movw	r3, #39264	; 0x9960
    9d90:	e3a02000 	mov	r2, #0
    9d94:	e3403000 	movt	r3, #0
    9d98:	e1a01002 	mov	r1, r2
    9d9c:	e5843000 	str	r3, [r4]
    9da0:	e1a00004 	mov	r0, r4
    9da4:	e5842004 	str	r2, [r4, #4]
    9da8:	ebfffeec 	bl	9960 <_ZN26InitialInteractiveLoaderSM7initialE5PhasePc>
    9dac:	e3a00000 	mov	r0, #0
    9db0:	e8bd8010 	pop	{r4, pc}
    9db4:	e3530001 	cmp	r3, #1
    9db8:	1affffe5 	bne	9d54 <_ZN26InitialInteractiveLoaderSM7displayE5PhasePc+0xc0>
    9dbc:	e594300c 	ldr	r3, [r4, #12]
    9dc0:	e3530000 	cmp	r3, #0
    9dc4:	03a03010 	moveq	r3, #16
    9dc8:	e5843028 	str	r3, [r4, #40]	; 0x28
    9dcc:	eaffffe0 	b	9d54 <_ZN26InitialInteractiveLoaderSM7displayE5PhasePc+0xc0>
    9dd0:	e5903008 	ldr	r3, [r0, #8]
    9dd4:	e2833003 	add	r3, r3, #3
    9dd8:	e5803008 	str	r3, [r0, #8]
    9ddc:	eaffffd4 	b	9d34 <_ZN26InitialInteractiveLoaderSM7displayE5PhasePc+0xa0>
    9de0:	e5900030 	ldr	r0, [r0, #48]	; 0x30
    9de4:	e3a02000 	mov	r2, #0
    9de8:	e594100c 	ldr	r1, [r4, #12]
    9dec:	e5943008 	ldr	r3, [r4, #8]
    9df0:	e2800001 	add	r0, r0, #1
    9df4:	e5840030 	str	r0, [r4, #48]	; 0x30
    9df8:	e5841020 	str	r1, [r4, #32]
    9dfc:	e584200c 	str	r2, [r4, #12]
    9e00:	eaffffcb 	b	9d34 <_ZN26InitialInteractiveLoaderSM7displayE5PhasePc+0xa0>
    9e04:	e590000c 	ldr	r0, [r0, #12]
    9e08:	ebfffc3d 	bl	8f04 <convert>
    9e0c:	e584000c 	str	r0, [r4, #12]
    9e10:	e5943008 	ldr	r3, [r4, #8]
    9e14:	eaffffc6 	b	9d34 <_ZN26InitialInteractiveLoaderSM7displayE5PhasePc+0xa0>

00009e18 <_ZN26InitialInteractiveLoaderSM10runHex2BinEv>:
    9e18:	e92d40f0 	push	{r4, r5, r6, r7, lr}
    9e1c:	e30a7c38 	movw	r7, #44088	; 0xac38
    9e20:	e3407000 	movt	r7, #0
    9e24:	e24ddf4f 	sub	sp, sp, #316	; 0x13c
    9e28:	e3a0403a 	mov	r4, #58	; 0x3a
    9e2c:	e3a06000 	mov	r6, #0
    9e30:	e3a05601 	mov	r5, #1048576	; 0x100000
    9e34:	ebfff9ee 	bl	85f4 <read_rx_buffer>
    9e38:	e1500004 	cmp	r0, r4
    9e3c:	e30a3c38 	movw	r3, #44088	; 0xac38
    9e40:	e3403000 	movt	r3, #0
    9e44:	02866001 	addeq	r6, r6, #1
    9e48:	00873006 	addeq	r3, r7, r6
    9e4c:	13a06000 	movne	r6, #0
    9e50:	e4c50001 	strb	r0, [r5], #1
    9e54:	e5d34000 	ldrb	r4, [r3]
    9e58:	e3540000 	cmp	r4, #0
    9e5c:	1afffff4 	bne	9e34 <_ZN26InitialInteractiveLoaderSM10runHex2BinEv+0x1c>
    9e60:	e1a0000d 	mov	r0, sp
    9e64:	ebfffc1a 	bl	8ed4 <_ZN17Hex2BinEFSMachineC1Ev>
    9e68:	e3a02601 	mov	r2, #1048576	; 0x100000
    9e6c:	e59d3004 	ldr	r3, [sp, #4]
    9e70:	e28d1000 	add	r1, sp, #0
    9e74:	e2824001 	add	r4, r2, #1
    9e78:	e3130001 	tst	r3, #1
    9e7c:	e08100c3 	add	r0, r1, r3, asr #1
    9e80:	179d10c3 	ldrne	r1, [sp, r3, asr #1]
    9e84:	159d3000 	ldrne	r3, [sp]
    9e88:	059d3000 	ldreq	r3, [sp]
    9e8c:	17913003 	ldrne	r3, [r1, r3]
    9e90:	e3a01001 	mov	r1, #1
    9e94:	e12fff33 	blx	r3
    9e98:	e3500000 	cmp	r0, #0
    9e9c:	e1a02004 	mov	r2, r4
    9ea0:	dafffff1 	ble	9e6c <_ZN26InitialInteractiveLoaderSM10runHex2BinEv+0x54>
    9ea4:	e28ddf4f 	add	sp, sp, #316	; 0x13c
    9ea8:	e8bd80f0 	pop	{r4, r5, r6, r7, pc}

00009eac <_ZN26InitialInteractiveLoaderSM4loadE5PhasePc>:
    9eac:	e3510001 	cmp	r1, #1
    9eb0:	e92d4010 	push	{r4, lr}
    9eb4:	e1a04000 	mov	r4, r0
    9eb8:	0a00000a 	beq	9ee8 <_ZN26InitialInteractiveLoaderSM4loadE5PhasePc+0x3c>
    9ebc:	3a000004 	bcc	9ed4 <_ZN26InitialInteractiveLoaderSM4loadE5PhasePc+0x28>
    9ec0:	e3510002 	cmp	r1, #2
    9ec4:	1a000000 	bne	9ecc <_ZN26InitialInteractiveLoaderSM4loadE5PhasePc+0x20>
    9ec8:	ebffffd2 	bl	9e18 <_ZN26InitialInteractiveLoaderSM10runHex2BinEv>
    9ecc:	e3a00000 	mov	r0, #0
    9ed0:	e8bd8010 	pop	{r4, pc}
    9ed4:	e3a03000 	mov	r3, #0
    9ed8:	e580300c 	str	r3, [r0, #12]
    9edc:	e5803008 	str	r3, [r0, #8]
    9ee0:	e3a00000 	mov	r0, #0
    9ee4:	e8bd8010 	pop	{r4, pc}
    9ee8:	e5d23000 	ldrb	r3, [r2]
    9eec:	e353000a 	cmp	r3, #10
    9ef0:	0a00001c 	beq	9f68 <_ZN26InitialInteractiveLoaderSM4loadE5PhasePc+0xbc>
    9ef4:	e353000d 	cmp	r3, #13
    9ef8:	e5903008 	ldr	r3, [r0, #8]
    9efc:	02833005 	addeq	r3, r3, #5
    9f00:	05803008 	streq	r3, [r0, #8]
    9f04:	e3530002 	cmp	r3, #2
    9f08:	daffffef 	ble	9ecc <_ZN26InitialInteractiveLoaderSM4loadE5PhasePc+0x20>
    9f0c:	e30a0ba4 	movw	r0, #43940	; 0xaba4
    9f10:	e3400000 	movt	r0, #0
    9f14:	ebfff98c 	bl	854c <sendString>
    9f18:	e5940004 	ldr	r0, [r4, #4]
    9f1c:	e3a01002 	mov	r1, #2
    9f20:	e3100001 	tst	r0, #1
    9f24:	008400c0 	addeq	r0, r4, r0, asr #1
    9f28:	179420c0 	ldrne	r2, [r4, r0, asr #1]
    9f2c:	15943000 	ldrne	r3, [r4]
    9f30:	05943000 	ldreq	r3, [r4]
    9f34:	17923003 	ldrne	r3, [r2, r3]
    9f38:	e3a02000 	mov	r2, #0
    9f3c:	108400c0 	addne	r0, r4, r0, asr #1
    9f40:	e12fff33 	blx	r3
    9f44:	e3093960 	movw	r3, #39264	; 0x9960
    9f48:	e3a02000 	mov	r2, #0
    9f4c:	e3403000 	movt	r3, #0
    9f50:	e1a01002 	mov	r1, r2
    9f54:	e5843000 	str	r3, [r4]
    9f58:	e1a00004 	mov	r0, r4
    9f5c:	e5842004 	str	r2, [r4, #4]
    9f60:	ebfffe7e 	bl	9960 <_ZN26InitialInteractiveLoaderSM7initialE5PhasePc>
    9f64:	eaffffd8 	b	9ecc <_ZN26InitialInteractiveLoaderSM4loadE5PhasePc+0x20>
    9f68:	e5903008 	ldr	r3, [r0, #8]
    9f6c:	e2833003 	add	r3, r3, #3
    9f70:	e5803008 	str	r3, [r0, #8]
    9f74:	eaffffe2 	b	9f04 <_ZN26InitialInteractiveLoaderSM4loadE5PhasePc+0x58>

00009f78 <_ZN12FormatParser7initialEPKc>:
    9f78:	e590c008 	ldr	ip, [r0, #8]
    9f7c:	e1a03000 	mov	r3, r0
    9f80:	e3a02000 	mov	r2, #0
    9f84:	e3091fc0 	movw	r1, #40896	; 0x9fc0
    9f88:	e5cc2000 	strb	r2, [ip]
    9f8c:	e3a00001 	mov	r0, #1
    9f90:	e593c008 	ldr	ip, [r3, #8]
    9f94:	e3401000 	movt	r1, #0
    9f98:	e5832010 	str	r2, [r3, #16]
    9f9c:	e5832014 	str	r2, [r3, #20]
    9fa0:	e5832004 	str	r2, [r3, #4]
    9fa4:	e583c00c 	str	ip, [r3, #12]
    9fa8:	e5831000 	str	r1, [r3]
    9fac:	e12fff1e 	bx	lr

00009fb0 <_ZN12FormatParser6finishEPKc>:
    9fb0:	e3a00001 	mov	r0, #1
    9fb4:	e12fff1e 	bx	lr

00009fb8 <_ZN12FormatParser5errorEPKc>:
    9fb8:	e3a00001 	mov	r0, #1
    9fbc:	e12fff1e 	bx	lr

00009fc0 <_ZN12FormatParser4textEPKc>:
    9fc0:	e5d13000 	ldrb	r3, [r1]
    9fc4:	e3530000 	cmp	r3, #0
    9fc8:	0a000011 	beq	a014 <_ZN12FormatParser4textEPKc+0x54>
    9fcc:	e3530025 	cmp	r3, #37	; 0x25
    9fd0:	0a000006 	beq	9ff0 <_ZN12FormatParser4textEPKc+0x30>
    9fd4:	e590300c 	ldr	r3, [r0, #12]
    9fd8:	e2832001 	add	r2, r3, #1
    9fdc:	e580200c 	str	r2, [r0, #12]
    9fe0:	e3a00001 	mov	r0, #1
    9fe4:	e5d12000 	ldrb	r2, [r1]
    9fe8:	e5c32000 	strb	r2, [r3]
    9fec:	e12fff1e 	bx	lr
    9ff0:	e30a24a8 	movw	r2, #42152	; 0xa4a8
    9ff4:	e3a03000 	mov	r3, #0
    9ff8:	e3402000 	movt	r2, #0
    9ffc:	e5802000 	str	r2, [r0]
    a000:	e5803014 	str	r3, [r0, #20]
    a004:	e5803010 	str	r3, [r0, #16]
    a008:	e5803004 	str	r3, [r0, #4]
    a00c:	e3a00001 	mov	r0, #1
    a010:	e12fff1e 	bx	lr
    a014:	e590100c 	ldr	r1, [r0, #12]
    a018:	e3092fb0 	movw	r2, #40880	; 0x9fb0
    a01c:	e3402000 	movt	r2, #0
    a020:	e5c13000 	strb	r3, [r1]
    a024:	e880000c 	stm	r0, {r2, r3}
    a028:	e3a00001 	mov	r0, #1
    a02c:	e12fff1e 	bx	lr

0000a030 <_ZN12FormatParser10controlCmdEPKc>:
    a030:	e52d4004 	push	{r4}		; (str r4, [sp, #-4]!)
    a034:	e5d13000 	ldrb	r3, [r1]
    a038:	e3530000 	cmp	r3, #0
    a03c:	0a000017 	beq	a0a0 <_ZN12FormatParser10controlCmdEPKc+0x70>
    a040:	e3530025 	cmp	r3, #37	; 0x25
    a044:	0a00000b 	beq	a078 <_ZN12FormatParser10controlCmdEPKc+0x48>
    a048:	e590200c 	ldr	r2, [r0, #12]
    a04c:	e3093fc0 	movw	r3, #40896	; 0x9fc0
    a050:	e3403000 	movt	r3, #0
    a054:	e3a0c000 	mov	ip, #0
    a058:	e2824001 	add	r4, r2, #1
    a05c:	e580400c 	str	r4, [r0, #12]
    a060:	e5d11000 	ldrb	r1, [r1]
    a064:	e5c21000 	strb	r1, [r2]
    a068:	e8801008 	stm	r0, {r3, ip}
    a06c:	e49d4004 	pop	{r4}		; (ldr r4, [sp], #4)
    a070:	e3a00001 	mov	r0, #1
    a074:	e12fff1e 	bx	lr
    a078:	e30a24a8 	movw	r2, #42152	; 0xa4a8
    a07c:	e3a03000 	mov	r3, #0
    a080:	e3402000 	movt	r2, #0
    a084:	e5802000 	str	r2, [r0]
    a088:	e5803004 	str	r3, [r0, #4]
    a08c:	e5803014 	str	r3, [r0, #20]
    a090:	e5803010 	str	r3, [r0, #16]
    a094:	e3a00001 	mov	r0, #1
    a098:	e49d4004 	pop	{r4}		; (ldr r4, [sp], #4)
    a09c:	e12fff1e 	bx	lr
    a0a0:	e590100c 	ldr	r1, [r0, #12]
    a0a4:	e3092fb8 	movw	r2, #40888	; 0x9fb8
    a0a8:	e3402000 	movt	r2, #0
    a0ac:	e5c13000 	strb	r3, [r1]
    a0b0:	e880000c 	stm	r0, {r2, r3}
    a0b4:	e49d4004 	pop	{r4}		; (ldr r4, [sp], #4)
    a0b8:	e3a00001 	mov	r0, #1
    a0bc:	e12fff1e 	bx	lr

0000a0c0 <_ZN12FormatParser6formatEPcPKcz>:
    a0c0:	e92d000c 	push	{r2, r3}
    a0c4:	e3093f78 	movw	r3, #40824	; 0x9f78
    a0c8:	e92d40f0 	push	{r4, r5, r6, r7, lr}
    a0cc:	e24dd00c 	sub	sp, sp, #12
    a0d0:	e3403000 	movt	r3, #0
    a0d4:	e28d2024 	add	r2, sp, #36	; 0x24
    a0d8:	e5803000 	str	r3, [r0]
    a0dc:	e3a03000 	mov	r3, #0
    a0e0:	e5801008 	str	r1, [r0, #8]
    a0e4:	e3096fb0 	movw	r6, #40880	; 0x9fb0
    a0e8:	e5802018 	str	r2, [r0, #24]
    a0ec:	e1a01003 	mov	r1, r3
    a0f0:	e5803004 	str	r3, [r0, #4]
    a0f4:	e3097fb8 	movw	r7, #40888	; 0x9fb8
    a0f8:	e59d5020 	ldr	r5, [sp, #32]
    a0fc:	e1a04000 	mov	r4, r0
    a100:	e58d2004 	str	r2, [sp, #4]
    a104:	ebffff9b 	bl	9f78 <_ZN12FormatParser7initialEPKc>
    a108:	e3406000 	movt	r6, #0
    a10c:	e3407000 	movt	r7, #0
    a110:	ea00000a 	b	a140 <_ZN12FormatParser6formatEPcPKcz+0x80>
    a114:	e1530007 	cmp	r3, r7
    a118:	0a00000c 	beq	a150 <_ZN12FormatParser6formatEPcPKcz+0x90>
    a11c:	e3100001 	tst	r0, #1
    a120:	e2852001 	add	r2, r5, #1
    a124:	008400c0 	addeq	r0, r4, r0, asr #1
    a128:	179410c0 	ldrne	r1, [r4, r0, asr #1]
    a12c:	108400c0 	addne	r0, r4, r0, asr #1
    a130:	17913003 	ldrne	r3, [r1, r3]
    a134:	e1a01005 	mov	r1, r5
    a138:	e1a05002 	mov	r5, r2
    a13c:	e12fff33 	blx	r3
    a140:	e5943000 	ldr	r3, [r4]
    a144:	e5940004 	ldr	r0, [r4, #4]
    a148:	e1530006 	cmp	r3, r6
    a14c:	1afffff0 	bne	a114 <_ZN12FormatParser6formatEPcPKcz+0x54>
    a150:	e3500000 	cmp	r0, #0
    a154:	1afffff0 	bne	a11c <_ZN12FormatParser6formatEPcPKcz+0x5c>
    a158:	e28dd00c 	add	sp, sp, #12
    a15c:	e8bd40f0 	pop	{r4, r5, r6, r7, lr}
    a160:	e28dd008 	add	sp, sp, #8
    a164:	e12fff1e 	bx	lr

0000a168 <_Z14stringToStringPcS_i>:
    a168:	e92d0070 	push	{r4, r5, r6}
    a16c:	e3520000 	cmp	r2, #0
    a170:	e5d1c000 	ldrb	ip, [r1]
    a174:	b3a04001 	movlt	r4, #1
    a178:	b2622000 	rsblt	r2, r2, #0
    a17c:	a3a04000 	movge	r4, #0
    a180:	e35c0000 	cmp	ip, #0
    a184:	0a000004 	beq	a19c <_Z14stringToStringPcS_i+0x34>
    a188:	e3a0c000 	mov	ip, #0
    a18c:	e28cc001 	add	ip, ip, #1
    a190:	e7d1300c 	ldrb	r3, [r1, ip]
    a194:	e3530000 	cmp	r3, #0
    a198:	1afffffb 	bne	a18c <_Z14stringToStringPcS_i+0x24>
    a19c:	e3520000 	cmp	r2, #0
    a1a0:	0a000009 	beq	a1cc <_Z14stringToStringPcS_i+0x64>
    a1a4:	e152000c 	cmp	r2, ip
    a1a8:	aa000008 	bge	a1d0 <_Z14stringToStringPcS_i+0x68>
    a1ac:	e0802002 	add	r2, r0, r2
    a1b0:	e3a0302a 	mov	r3, #42	; 0x2a
    a1b4:	e4c03001 	strb	r3, [r0], #1
    a1b8:	e1500002 	cmp	r0, r2
    a1bc:	1afffffc 	bne	a1b4 <_Z14stringToStringPcS_i+0x4c>
    a1c0:	e1a00002 	mov	r0, r2
    a1c4:	e8bd0070 	pop	{r4, r5, r6}
    a1c8:	e12fff1e 	bx	lr
    a1cc:	e1a0200c 	mov	r2, ip
    a1d0:	e3540000 	cmp	r4, #0
    a1d4:	13a03000 	movne	r3, #0
    a1d8:	1a000009 	bne	a204 <_Z14stringToStringPcS_i+0x9c>
    a1dc:	e06c3002 	rsb	r3, ip, r2
    a1e0:	e3530000 	cmp	r3, #0
    a1e4:	d1a03004 	movle	r3, r4
    a1e8:	da000005 	ble	a204 <_Z14stringToStringPcS_i+0x9c>
    a1ec:	e0836000 	add	r6, r3, r0
    a1f0:	e1a04000 	mov	r4, r0
    a1f4:	e3a05020 	mov	r5, #32
    a1f8:	e4c45001 	strb	r5, [r4], #1
    a1fc:	e1540006 	cmp	r4, r6
    a200:	1afffffc 	bne	a1f8 <_Z14stringToStringPcS_i+0x90>
    a204:	e35c0000 	cmp	ip, #0
    a208:	1083c00c 	addne	ip, r3, ip
    a20c:	10634001 	rsbne	r4, r3, r1
    a210:	0a000004 	beq	a228 <_Z14stringToStringPcS_i+0xc0>
    a214:	e7d41003 	ldrb	r1, [r4, r3]
    a218:	e7c01003 	strb	r1, [r0, r3]
    a21c:	e2833001 	add	r3, r3, #1
    a220:	e153000c 	cmp	r3, ip
    a224:	1afffffa 	bne	a214 <_Z14stringToStringPcS_i+0xac>
    a228:	e1520003 	cmp	r2, r3
    a22c:	c0803003 	addgt	r3, r0, r3
    a230:	c3a01020 	movgt	r1, #32
    a234:	c0800002 	addgt	r0, r0, r2
    a238:	da000006 	ble	a258 <_Z14stringToStringPcS_i+0xf0>
    a23c:	e4c31001 	strb	r1, [r3], #1
    a240:	e1530000 	cmp	r3, r0
    a244:	1afffffc 	bne	a23c <_Z14stringToStringPcS_i+0xd4>
    a248:	e1a02000 	mov	r2, r0
    a24c:	e1a00002 	mov	r0, r2
    a250:	e8bd0070 	pop	{r4, r5, r6}
    a254:	e12fff1e 	bx	lr
    a258:	e0800002 	add	r0, r0, r2
    a25c:	eafffff9 	b	a248 <_Z14stringToStringPcS_i+0xe0>

0000a260 <_Z11intToStringPciic>:
    a260:	e3530068 	cmp	r3, #104	; 0x68
    a264:	e92d4ff0 	push	{r4, r5, r6, r7, r8, r9, sl, fp, lr}
    a268:	e1a07000 	mov	r7, r0
    a26c:	13a0500a 	movne	r5, #10
    a270:	03a05010 	moveq	r5, #16
    a274:	e2526000 	subs	r6, r2, #0
    a278:	b2666000 	rsblt	r6, r6, #0
    a27c:	b3a0a001 	movlt	sl, #1
    a280:	a3a0a000 	movge	sl, #0
    a284:	e24dd05c 	sub	sp, sp, #92	; 0x5c
    a288:	e3530075 	cmp	r3, #117	; 0x75
    a28c:	13530068 	cmpne	r3, #104	; 0x68
    a290:	0a000001 	beq	a29c <_Z11intToStringPciic+0x3c>
    a294:	e3510000 	cmp	r1, #0
    a298:	ba00004e 	blt	a3d8 <_Z11intToStringPciic+0x178>
    a29c:	e1a0b001 	mov	fp, r1
    a2a0:	e3a03000 	mov	r3, #0
    a2a4:	e58d3004 	str	r3, [sp, #4]
    a2a8:	e35b0000 	cmp	fp, #0
    a2ac:	1a000030 	bne	a374 <_Z11intToStringPciic+0x114>
    a2b0:	e3a04001 	mov	r4, #1
    a2b4:	e3a03030 	mov	r3, #48	; 0x30
    a2b8:	e5cd3008 	strb	r3, [sp, #8]
    a2bc:	e59d3004 	ldr	r3, [sp, #4]
    a2c0:	e3530001 	cmp	r3, #1
    a2c4:	028d1058 	addeq	r1, sp, #88	; 0x58
    a2c8:	03a0202d 	moveq	r2, #45	; 0x2d
    a2cc:	00813004 	addeq	r3, r1, r4
    a2d0:	02844001 	addeq	r4, r4, #1
    a2d4:	05432050 	strbeq	r2, [r3, #-80]	; 0x50
    a2d8:	e3560000 	cmp	r6, #0
    a2dc:	0a000022 	beq	a36c <_Z11intToStringPciic+0x10c>
    a2e0:	e1560004 	cmp	r6, r4
    a2e4:	ba000032 	blt	a3b4 <_Z11intToStringPciic+0x154>
    a2e8:	e28d0008 	add	r0, sp, #8
    a2ec:	e35a0000 	cmp	sl, #0
    a2f0:	13a05000 	movne	r5, #0
    a2f4:	11a01007 	movne	r1, r7
    a2f8:	1a00000a 	bne	a328 <_Z11intToStringPciic+0xc8>
    a2fc:	e0645006 	rsb	r5, r4, r6
    a300:	e3550000 	cmp	r5, #0
    a304:	d1a0500a 	movle	r5, sl
    a308:	d1a01007 	movle	r1, r7
    a30c:	da000005 	ble	a328 <_Z11intToStringPciic+0xc8>
    a310:	e0871005 	add	r1, r7, r5
    a314:	e1a02007 	mov	r2, r7
    a318:	e3a0c020 	mov	ip, #32
    a31c:	e4c2c001 	strb	ip, [r2], #1
    a320:	e1520001 	cmp	r2, r1
    a324:	1afffffc 	bne	a31c <_Z11intToStringPciic+0xbc>
    a328:	e0803004 	add	r3, r0, r4
    a32c:	e573c001 	ldrb	ip, [r3, #-1]!
    a330:	e1530000 	cmp	r3, r0
    a334:	e4c1c001 	strb	ip, [r1], #1
    a338:	1afffffb 	bne	a32c <_Z11intToStringPciic+0xcc>
    a33c:	e0843005 	add	r3, r4, r5
    a340:	e1560003 	cmp	r6, r3
    a344:	d0870006 	addle	r0, r7, r6
    a348:	da000005 	ble	a364 <_Z11intToStringPciic+0x104>
    a34c:	e0873003 	add	r3, r7, r3
    a350:	e3a02020 	mov	r2, #32
    a354:	e0870006 	add	r0, r7, r6
    a358:	e4c32001 	strb	r2, [r3], #1
    a35c:	e1530000 	cmp	r3, r0
    a360:	1afffffc 	bne	a358 <_Z11intToStringPciic+0xf8>
    a364:	e28dd05c 	add	sp, sp, #92	; 0x5c
    a368:	e8bd8ff0 	pop	{r4, r5, r6, r7, r8, r9, sl, fp, pc}
    a36c:	e1a06004 	mov	r6, r4
    a370:	eaffffdc 	b	a2e8 <_Z11intToStringPciic+0x88>
    a374:	e30a9c58 	movw	r9, #44120	; 0xac58
    a378:	e28d8007 	add	r8, sp, #7
    a37c:	e3409000 	movt	r9, #0
    a380:	e3a04000 	mov	r4, #0
    a384:	e1a0000b 	mov	r0, fp
    a388:	e1a01005 	mov	r1, r5
    a38c:	eb00015b 	bl	a900 <__aeabi_uidivmod>
    a390:	e7d92001 	ldrb	r2, [r9, r1]
    a394:	e1a0000b 	mov	r0, fp
    a398:	e1a01005 	mov	r1, r5
    a39c:	e2844001 	add	r4, r4, #1
    a3a0:	e5e82001 	strb	r2, [r8, #1]!
    a3a4:	eb000118 	bl	a80c <__aeabi_uidiv>
    a3a8:	e250b000 	subs	fp, r0, #0
    a3ac:	1afffff4 	bne	a384 <_Z11intToStringPciic+0x124>
    a3b0:	eaffffc1 	b	a2bc <_Z11intToStringPciic+0x5c>
    a3b4:	e3a03000 	mov	r3, #0
    a3b8:	e28d0008 	add	r0, sp, #8
    a3bc:	e3a0202a 	mov	r2, #42	; 0x2a
    a3c0:	e7c02003 	strb	r2, [r0, r3]
    a3c4:	e2833001 	add	r3, r3, #1
    a3c8:	e1560003 	cmp	r6, r3
    a3cc:	cafffffb 	bgt	a3c0 <_Z11intToStringPciic+0x160>
    a3d0:	e1a04006 	mov	r4, r6
    a3d4:	eaffffc4 	b	a2ec <_Z11intToStringPciic+0x8c>
    a3d8:	e261b000 	rsb	fp, r1, #0
    a3dc:	e3a03001 	mov	r3, #1
    a3e0:	e58d3004 	str	r3, [sp, #4]
    a3e4:	eaffffaf 	b	a2a8 <_Z11intToStringPciic+0x48>

0000a3e8 <_ZN12FormatParser12processParamEPKc>:
    a3e8:	e5903010 	ldr	r3, [r0, #16]
    a3ec:	e1a0c001 	mov	ip, r1
    a3f0:	e5902014 	ldr	r2, [r0, #20]
    a3f4:	e3530001 	cmp	r3, #1
    a3f8:	02622000 	rsbeq	r2, r2, #0
    a3fc:	e92d4010 	push	{r4, lr}
    a400:	e1a04000 	mov	r4, r0
    a404:	05802014 	streq	r2, [r0, #20]
    a408:	e24dd008 	sub	sp, sp, #8
    a40c:	e5d13000 	ldrb	r3, [r1]
    a410:	e3530063 	cmp	r3, #99	; 0x63
    a414:	0a000017 	beq	a478 <_ZN12FormatParser12processParamEPKc+0x90>
    a418:	e3530073 	cmp	r3, #115	; 0x73
    a41c:	e5903018 	ldr	r3, [r0, #24]
    a420:	e590000c 	ldr	r0, [r0, #12]
    a424:	0a00000d 	beq	a460 <_ZN12FormatParser12processParamEPKc+0x78>
    a428:	e5931000 	ldr	r1, [r3]
    a42c:	e2833004 	add	r3, r3, #4
    a430:	e5843018 	str	r3, [r4, #24]
    a434:	e5dc3000 	ldrb	r3, [ip]
    a438:	ebffff88 	bl	a260 <_Z11intToStringPciic>
    a43c:	e584000c 	str	r0, [r4, #12]
    a440:	e30a3030 	movw	r3, #41008	; 0xa030
    a444:	e3a02000 	mov	r2, #0
    a448:	e3403000 	movt	r3, #0
    a44c:	e3a00001 	mov	r0, #1
    a450:	e5843000 	str	r3, [r4]
    a454:	e5842004 	str	r2, [r4, #4]
    a458:	e28dd008 	add	sp, sp, #8
    a45c:	e8bd8010 	pop	{r4, pc}
    a460:	e2831004 	add	r1, r3, #4
    a464:	e5841018 	str	r1, [r4, #24]
    a468:	e5931000 	ldr	r1, [r3]
    a46c:	ebffff3d 	bl	a168 <_Z14stringToStringPcS_i>
    a470:	e584000c 	str	r0, [r4, #12]
    a474:	eafffff1 	b	a440 <_ZN12FormatParser12processParamEPKc+0x58>
    a478:	e5903018 	ldr	r3, [r0, #24]
    a47c:	e3a0c000 	mov	ip, #0
    a480:	e590000c 	ldr	r0, [r0, #12]
    a484:	e28d1004 	add	r1, sp, #4
    a488:	e593e000 	ldr	lr, [r3]
    a48c:	e2833004 	add	r3, r3, #4
    a490:	e5843018 	str	r3, [r4, #24]
    a494:	e5cde004 	strb	lr, [sp, #4]
    a498:	e5cdc005 	strb	ip, [sp, #5]
    a49c:	ebffff31 	bl	a168 <_Z14stringToStringPcS_i>
    a4a0:	e584000c 	str	r0, [r4, #12]
    a4a4:	eaffffe5 	b	a440 <_ZN12FormatParser12processParamEPKc+0x58>

0000a4a8 <_ZN12FormatParser7controlEPKc>:
    a4a8:	e92d4010 	push	{r4, lr}
    a4ac:	e5d12000 	ldrb	r2, [r1]
    a4b0:	e2423025 	sub	r3, r2, #37	; 0x25
    a4b4:	e3530050 	cmp	r3, #80	; 0x50
    a4b8:	979ff103 	ldrls	pc, [pc, r3, lsl #2]
    a4bc:	ea00006b 	b	a670 <_ZN12FormatParser7controlEPKc+0x1c8>
    a4c0:	0000a644 	andeq	sl, r0, r4, asr #12
    a4c4:	0000a670 	andeq	sl, r0, r0, ror r6
    a4c8:	0000a670 	andeq	sl, r0, r0, ror r6
    a4cc:	0000a670 	andeq	sl, r0, r0, ror r6
    a4d0:	0000a670 	andeq	sl, r0, r0, ror r6
    a4d4:	0000a670 	andeq	sl, r0, r0, ror r6
    a4d8:	0000a670 	andeq	sl, r0, r0, ror r6
    a4dc:	0000a670 	andeq	sl, r0, r0, ror r6
    a4e0:	0000a634 	andeq	sl, r0, r4, lsr r6
    a4e4:	0000a670 	andeq	sl, r0, r0, ror r6
    a4e8:	0000a670 	andeq	sl, r0, r0, ror r6
    a4ec:	0000a610 	andeq	sl, r0, r0, lsl r6
    a4f0:	0000a610 	andeq	sl, r0, r0, lsl r6
    a4f4:	0000a610 	andeq	sl, r0, r0, lsl r6
    a4f8:	0000a610 	andeq	sl, r0, r0, lsl r6
    a4fc:	0000a610 	andeq	sl, r0, r0, lsl r6
    a500:	0000a610 	andeq	sl, r0, r0, lsl r6
    a504:	0000a610 	andeq	sl, r0, r0, lsl r6
    a508:	0000a610 	andeq	sl, r0, r0, lsl r6
    a50c:	0000a610 	andeq	sl, r0, r0, lsl r6
    a510:	0000a610 	andeq	sl, r0, r0, lsl r6
    a514:	0000a670 	andeq	sl, r0, r0, ror r6
    a518:	0000a670 	andeq	sl, r0, r0, ror r6
    a51c:	0000a670 	andeq	sl, r0, r0, ror r6
    a520:	0000a670 	andeq	sl, r0, r0, ror r6
    a524:	0000a670 	andeq	sl, r0, r0, ror r6
    a528:	0000a670 	andeq	sl, r0, r0, ror r6
    a52c:	0000a670 	andeq	sl, r0, r0, ror r6
    a530:	0000a670 	andeq	sl, r0, r0, ror r6
    a534:	0000a670 	andeq	sl, r0, r0, ror r6
    a538:	0000a670 	andeq	sl, r0, r0, ror r6
    a53c:	0000a670 	andeq	sl, r0, r0, ror r6
    a540:	0000a670 	andeq	sl, r0, r0, ror r6
    a544:	0000a670 	andeq	sl, r0, r0, ror r6
    a548:	0000a670 	andeq	sl, r0, r0, ror r6
    a54c:	0000a670 	andeq	sl, r0, r0, ror r6
    a550:	0000a670 	andeq	sl, r0, r0, ror r6
    a554:	0000a670 	andeq	sl, r0, r0, ror r6
    a558:	0000a670 	andeq	sl, r0, r0, ror r6
    a55c:	0000a670 	andeq	sl, r0, r0, ror r6
    a560:	0000a670 	andeq	sl, r0, r0, ror r6
    a564:	0000a670 	andeq	sl, r0, r0, ror r6
    a568:	0000a670 	andeq	sl, r0, r0, ror r6
    a56c:	0000a670 	andeq	sl, r0, r0, ror r6
    a570:	0000a670 	andeq	sl, r0, r0, ror r6
    a574:	0000a670 	andeq	sl, r0, r0, ror r6
    a578:	0000a670 	andeq	sl, r0, r0, ror r6
    a57c:	0000a670 	andeq	sl, r0, r0, ror r6
    a580:	0000a670 	andeq	sl, r0, r0, ror r6
    a584:	0000a670 	andeq	sl, r0, r0, ror r6
    a588:	0000a670 	andeq	sl, r0, r0, ror r6
    a58c:	0000a670 	andeq	sl, r0, r0, ror r6
    a590:	0000a670 	andeq	sl, r0, r0, ror r6
    a594:	0000a670 	andeq	sl, r0, r0, ror r6
    a598:	0000a670 	andeq	sl, r0, r0, ror r6
    a59c:	0000a670 	andeq	sl, r0, r0, ror r6
    a5a0:	0000a670 	andeq	sl, r0, r0, ror r6
    a5a4:	0000a670 	andeq	sl, r0, r0, ror r6
    a5a8:	0000a670 	andeq	sl, r0, r0, ror r6
    a5ac:	0000a670 	andeq	sl, r0, r0, ror r6
    a5b0:	0000a670 	andeq	sl, r0, r0, ror r6
    a5b4:	0000a670 	andeq	sl, r0, r0, ror r6
    a5b8:	0000a604 	andeq	sl, r0, r4, lsl #12
    a5bc:	0000a604 	andeq	sl, r0, r4, lsl #12
    a5c0:	0000a670 	andeq	sl, r0, r0, ror r6
    a5c4:	0000a670 	andeq	sl, r0, r0, ror r6
    a5c8:	0000a670 	andeq	sl, r0, r0, ror r6
    a5cc:	0000a604 	andeq	sl, r0, r4, lsl #12
    a5d0:	0000a670 	andeq	sl, r0, r0, ror r6
    a5d4:	0000a670 	andeq	sl, r0, r0, ror r6
    a5d8:	0000a670 	andeq	sl, r0, r0, ror r6
    a5dc:	0000a670 	andeq	sl, r0, r0, ror r6
    a5e0:	0000a670 	andeq	sl, r0, r0, ror r6
    a5e4:	0000a670 	andeq	sl, r0, r0, ror r6
    a5e8:	0000a670 	andeq	sl, r0, r0, ror r6
    a5ec:	0000a670 	andeq	sl, r0, r0, ror r6
    a5f0:	0000a670 	andeq	sl, r0, r0, ror r6
    a5f4:	0000a670 	andeq	sl, r0, r0, ror r6
    a5f8:	0000a604 	andeq	sl, r0, r4, lsl #12
    a5fc:	0000a670 	andeq	sl, r0, r0, ror r6
    a600:	0000a604 	andeq	sl, r0, r4, lsl #12
    a604:	ebffff77 	bl	a3e8 <_ZN12FormatParser12processParamEPKc>
    a608:	e3a00001 	mov	r0, #1
    a60c:	e8bd8010 	pop	{r4, pc}
    a610:	e30a3694 	movw	r3, #42644	; 0xa694
    a614:	e2422030 	sub	r2, r2, #48	; 0x30
    a618:	e3403000 	movt	r3, #0
    a61c:	e3a01000 	mov	r1, #0
    a620:	e5802014 	str	r2, [r0, #20]
    a624:	e5803000 	str	r3, [r0]
    a628:	e5801004 	str	r1, [r0, #4]
    a62c:	e3a00001 	mov	r0, #1
    a630:	e8bd8010 	pop	{r4, pc}
    a634:	e3a03001 	mov	r3, #1
    a638:	e5803010 	str	r3, [r0, #16]
    a63c:	e3a00001 	mov	r0, #1
    a640:	e8bd8010 	pop	{r4, pc}
    a644:	e590200c 	ldr	r2, [r0, #12]
    a648:	e3093fc0 	movw	r3, #40896	; 0x9fc0
    a64c:	e3403000 	movt	r3, #0
    a650:	e3a0c000 	mov	ip, #0
    a654:	e2824001 	add	r4, r2, #1
    a658:	e580400c 	str	r4, [r0, #12]
    a65c:	e5d11000 	ldrb	r1, [r1]
    a660:	e5c21000 	strb	r1, [r2]
    a664:	e8801008 	stm	r0, {r3, ip}
    a668:	e3a00001 	mov	r0, #1
    a66c:	e8bd8010 	pop	{r4, pc}
    a670:	e590100c 	ldr	r1, [r0, #12]
    a674:	e3093fb8 	movw	r3, #40888	; 0x9fb8
    a678:	e3403000 	movt	r3, #0
    a67c:	e3a02000 	mov	r2, #0
    a680:	e5c12000 	strb	r2, [r1]
    a684:	e5802004 	str	r2, [r0, #4]
    a688:	e5803000 	str	r3, [r0]
    a68c:	e3a00001 	mov	r0, #1
    a690:	e8bd8010 	pop	{r4, pc}

0000a694 <_ZN12FormatParser10controlDigEPKc>:
    a694:	e92d4008 	push	{r3, lr}
    a698:	e5d13000 	ldrb	r3, [r1]
    a69c:	e2433030 	sub	r3, r3, #48	; 0x30
    a6a0:	e3530045 	cmp	r3, #69	; 0x45
    a6a4:	979ff103 	ldrls	pc, [pc, r3, lsl #2]
    a6a8:	ea00004e 	b	a7e8 <_ZN12FormatParser10controlDigEPKc+0x154>
    a6ac:	0000a7d0 	ldrdeq	sl, [r0], -r0
    a6b0:	0000a7d0 	ldrdeq	sl, [r0], -r0
    a6b4:	0000a7d0 	ldrdeq	sl, [r0], -r0
    a6b8:	0000a7d0 	ldrdeq	sl, [r0], -r0
    a6bc:	0000a7d0 	ldrdeq	sl, [r0], -r0
    a6c0:	0000a7d0 	ldrdeq	sl, [r0], -r0
    a6c4:	0000a7d0 	ldrdeq	sl, [r0], -r0
    a6c8:	0000a7d0 	ldrdeq	sl, [r0], -r0
    a6cc:	0000a7d0 	ldrdeq	sl, [r0], -r0
    a6d0:	0000a7d0 	ldrdeq	sl, [r0], -r0
    a6d4:	0000a7e8 	andeq	sl, r0, r8, ror #15
    a6d8:	0000a7e8 	andeq	sl, r0, r8, ror #15
    a6dc:	0000a7e8 	andeq	sl, r0, r8, ror #15
    a6e0:	0000a7e8 	andeq	sl, r0, r8, ror #15
    a6e4:	0000a7e8 	andeq	sl, r0, r8, ror #15
    a6e8:	0000a7e8 	andeq	sl, r0, r8, ror #15
    a6ec:	0000a7e8 	andeq	sl, r0, r8, ror #15
    a6f0:	0000a7e8 	andeq	sl, r0, r8, ror #15
    a6f4:	0000a7e8 	andeq	sl, r0, r8, ror #15
    a6f8:	0000a7e8 	andeq	sl, r0, r8, ror #15
    a6fc:	0000a7e8 	andeq	sl, r0, r8, ror #15
    a700:	0000a7e8 	andeq	sl, r0, r8, ror #15
    a704:	0000a7e8 	andeq	sl, r0, r8, ror #15
    a708:	0000a7e8 	andeq	sl, r0, r8, ror #15
    a70c:	0000a7e8 	andeq	sl, r0, r8, ror #15
    a710:	0000a7e8 	andeq	sl, r0, r8, ror #15
    a714:	0000a7e8 	andeq	sl, r0, r8, ror #15
    a718:	0000a7e8 	andeq	sl, r0, r8, ror #15
    a71c:	0000a7e8 	andeq	sl, r0, r8, ror #15
    a720:	0000a7e8 	andeq	sl, r0, r8, ror #15
    a724:	0000a7e8 	andeq	sl, r0, r8, ror #15
    a728:	0000a7e8 	andeq	sl, r0, r8, ror #15
    a72c:	0000a7e8 	andeq	sl, r0, r8, ror #15
    a730:	0000a7e8 	andeq	sl, r0, r8, ror #15
    a734:	0000a7e8 	andeq	sl, r0, r8, ror #15
    a738:	0000a7e8 	andeq	sl, r0, r8, ror #15
    a73c:	0000a7e8 	andeq	sl, r0, r8, ror #15
    a740:	0000a7e8 	andeq	sl, r0, r8, ror #15
    a744:	0000a7e8 	andeq	sl, r0, r8, ror #15
    a748:	0000a7e8 	andeq	sl, r0, r8, ror #15
    a74c:	0000a7e8 	andeq	sl, r0, r8, ror #15
    a750:	0000a7e8 	andeq	sl, r0, r8, ror #15
    a754:	0000a7e8 	andeq	sl, r0, r8, ror #15
    a758:	0000a7e8 	andeq	sl, r0, r8, ror #15
    a75c:	0000a7e8 	andeq	sl, r0, r8, ror #15
    a760:	0000a7e8 	andeq	sl, r0, r8, ror #15
    a764:	0000a7e8 	andeq	sl, r0, r8, ror #15
    a768:	0000a7e8 	andeq	sl, r0, r8, ror #15
    a76c:	0000a7e8 	andeq	sl, r0, r8, ror #15
    a770:	0000a7e8 	andeq	sl, r0, r8, ror #15
    a774:	0000a7e8 	andeq	sl, r0, r8, ror #15
    a778:	0000a7c4 	andeq	sl, r0, r4, asr #15
    a77c:	0000a7c4 	andeq	sl, r0, r4, asr #15
    a780:	0000a7e8 	andeq	sl, r0, r8, ror #15
    a784:	0000a7e8 	andeq	sl, r0, r8, ror #15
    a788:	0000a7e8 	andeq	sl, r0, r8, ror #15
    a78c:	0000a7c4 	andeq	sl, r0, r4, asr #15
    a790:	0000a7e8 	andeq	sl, r0, r8, ror #15
    a794:	0000a7e8 	andeq	sl, r0, r8, ror #15
    a798:	0000a7e8 	andeq	sl, r0, r8, ror #15
    a79c:	0000a7e8 	andeq	sl, r0, r8, ror #15
    a7a0:	0000a7e8 	andeq	sl, r0, r8, ror #15
    a7a4:	0000a7e8 	andeq	sl, r0, r8, ror #15
    a7a8:	0000a7e8 	andeq	sl, r0, r8, ror #15
    a7ac:	0000a7e8 	andeq	sl, r0, r8, ror #15
    a7b0:	0000a7e8 	andeq	sl, r0, r8, ror #15
    a7b4:	0000a7e8 	andeq	sl, r0, r8, ror #15
    a7b8:	0000a7c4 	andeq	sl, r0, r4, asr #15
    a7bc:	0000a7e8 	andeq	sl, r0, r8, ror #15
    a7c0:	0000a7c4 	andeq	sl, r0, r4, asr #15
    a7c4:	ebffff07 	bl	a3e8 <_ZN12FormatParser12processParamEPKc>
    a7c8:	e3a00001 	mov	r0, #1
    a7cc:	e8bd8008 	pop	{r3, pc}
    a7d0:	e5902014 	ldr	r2, [r0, #20]
    a7d4:	e0822102 	add	r2, r2, r2, lsl #2
    a7d8:	e0833082 	add	r3, r3, r2, lsl #1
    a7dc:	e5803014 	str	r3, [r0, #20]
    a7e0:	e3a00001 	mov	r0, #1
    a7e4:	e8bd8008 	pop	{r3, pc}
    a7e8:	e590100c 	ldr	r1, [r0, #12]
    a7ec:	e3093fb8 	movw	r3, #40888	; 0x9fb8
    a7f0:	e3403000 	movt	r3, #0
    a7f4:	e3a02000 	mov	r2, #0
    a7f8:	e5c12000 	strb	r2, [r1]
    a7fc:	e5802004 	str	r2, [r0, #4]
    a800:	e5803000 	str	r3, [r0]
    a804:	e3a00001 	mov	r0, #1
    a808:	e8bd8008 	pop	{r3, pc}

0000a80c <__aeabi_uidiv>:
    a80c:	e2512001 	subs	r2, r1, #1
    a810:	012fff1e 	bxeq	lr
    a814:	3a000036 	bcc	a8f4 <__aeabi_uidiv+0xe8>
    a818:	e1500001 	cmp	r0, r1
    a81c:	9a000022 	bls	a8ac <__aeabi_uidiv+0xa0>
    a820:	e1110002 	tst	r1, r2
    a824:	0a000023 	beq	a8b8 <__aeabi_uidiv+0xac>
    a828:	e311020e 	tst	r1, #-536870912	; 0xe0000000
    a82c:	01a01181 	lsleq	r1, r1, #3
    a830:	03a03008 	moveq	r3, #8
    a834:	13a03001 	movne	r3, #1
    a838:	e3510201 	cmp	r1, #268435456	; 0x10000000
    a83c:	31510000 	cmpcc	r1, r0
    a840:	31a01201 	lslcc	r1, r1, #4
    a844:	31a03203 	lslcc	r3, r3, #4
    a848:	3afffffa 	bcc	a838 <__aeabi_uidiv+0x2c>
    a84c:	e3510102 	cmp	r1, #-2147483648	; 0x80000000
    a850:	31510000 	cmpcc	r1, r0
    a854:	31a01081 	lslcc	r1, r1, #1
    a858:	31a03083 	lslcc	r3, r3, #1
    a85c:	3afffffa 	bcc	a84c <__aeabi_uidiv+0x40>
    a860:	e3a02000 	mov	r2, #0
    a864:	e1500001 	cmp	r0, r1
    a868:	20400001 	subcs	r0, r0, r1
    a86c:	21822003 	orrcs	r2, r2, r3
    a870:	e15000a1 	cmp	r0, r1, lsr #1
    a874:	204000a1 	subcs	r0, r0, r1, lsr #1
    a878:	218220a3 	orrcs	r2, r2, r3, lsr #1
    a87c:	e1500121 	cmp	r0, r1, lsr #2
    a880:	20400121 	subcs	r0, r0, r1, lsr #2
    a884:	21822123 	orrcs	r2, r2, r3, lsr #2
    a888:	e15001a1 	cmp	r0, r1, lsr #3
    a88c:	204001a1 	subcs	r0, r0, r1, lsr #3
    a890:	218221a3 	orrcs	r2, r2, r3, lsr #3
    a894:	e3500000 	cmp	r0, #0
    a898:	11b03223 	lsrsne	r3, r3, #4
    a89c:	11a01221 	lsrne	r1, r1, #4
    a8a0:	1affffef 	bne	a864 <__aeabi_uidiv+0x58>
    a8a4:	e1a00002 	mov	r0, r2
    a8a8:	e12fff1e 	bx	lr
    a8ac:	03a00001 	moveq	r0, #1
    a8b0:	13a00000 	movne	r0, #0
    a8b4:	e12fff1e 	bx	lr
    a8b8:	e3510801 	cmp	r1, #65536	; 0x10000
    a8bc:	21a01821 	lsrcs	r1, r1, #16
    a8c0:	23a02010 	movcs	r2, #16
    a8c4:	33a02000 	movcc	r2, #0
    a8c8:	e3510c01 	cmp	r1, #256	; 0x100
    a8cc:	21a01421 	lsrcs	r1, r1, #8
    a8d0:	22822008 	addcs	r2, r2, #8
    a8d4:	e3510010 	cmp	r1, #16
    a8d8:	21a01221 	lsrcs	r1, r1, #4
    a8dc:	22822004 	addcs	r2, r2, #4
    a8e0:	e3510004 	cmp	r1, #4
    a8e4:	82822003 	addhi	r2, r2, #3
    a8e8:	908220a1 	addls	r2, r2, r1, lsr #1
    a8ec:	e1a00230 	lsr	r0, r0, r2
    a8f0:	e12fff1e 	bx	lr
    a8f4:	e3500000 	cmp	r0, #0
    a8f8:	13e00000 	mvnne	r0, #0
    a8fc:	ea000007 	b	a920 <__aeabi_idiv0>

0000a900 <__aeabi_uidivmod>:
    a900:	e3510000 	cmp	r1, #0
    a904:	0afffffa 	beq	a8f4 <__aeabi_uidiv+0xe8>
    a908:	e92d4003 	push	{r0, r1, lr}
    a90c:	ebffffbe 	bl	a80c <__aeabi_uidiv>
    a910:	e8bd4006 	pop	{r1, r2, lr}
    a914:	e0030092 	mul	r3, r2, r0
    a918:	e0411003 	sub	r1, r1, r3
    a91c:	e12fff1e 	bx	lr

0000a920 <__aeabi_idiv0>:
    a920:	e12fff1e 	bx	lr

Disassembly of section .rodata.str1.4:

0000a924 <.rodata.str1.4>:
    a924:	6e490d0a 	cdpvs	13, 4, cr0, cr9, cr10, {0}
    a928:	61697469 	cmnvs	r9, r9, ror #8
    a92c:	6e49206c 	cdpvs	0, 4, cr2, cr9, cr12, {3}
    a930:	61726574 	cmnvs	r2, r4, ror r5
    a934:	76697463 	strbtvc	r7, [r9], -r3, ror #8
    a938:	6f4c2065 	svcvs	0x004c2065
    a93c:	72656461 	rsbvc	r6, r5, #1627389952	; 0x61000000
    a940:	29632820 	stmdbcs	r3!, {r5, fp, sp}^
    a944:	61726b20 	cmnvs	r2, r0, lsr #22
    a948:	706f6e73 	rsbvc	r6, pc, r3, ror lr	; <UNPREDICTABLE>
    a94c:	6c656240 	sfmvs	f6, 2, [r5], #-256	; 0xffffff00
    a950:	756f736c 	strbvc	r7, [pc, #-876]!	; a5ec <_ZN12FormatParser7controlEPKc+0x144>
    a954:	6e2e6874 	mcrvs	8, 1, r6, cr14, cr4, {3}
    a958:	0d0a7465 	cfstrseq	mvf7, [sl, #-404]	; 0xfffffe6c
    a95c:	00000000 	andeq	r0, r0, r0
    a960:	6975625b 	ldmdbvs	r5!, {r0, r1, r3, r4, r6, r9, sp, lr}^
    a964:	3020646c 	eorcc	r6, r0, ip, ror #8
    a968:	322e312e 	eorcc	r3, lr, #-2147483637	; 0x8000000b
    a96c:	3031202c 	eorscc	r2, r1, ip, lsr #32
    a970:	2f37312f 	svccs	0x0037312f
    a974:	34323032 	ldrtcc	r3, [r2], #-50	; 0x32
    a978:	000d0a5d 	andeq	r0, sp, sp, asr sl
    a97c:	6d6d6f43 	stclvs	15, cr6, [sp, #-268]!	; 0xfffffef4
    a980:	73646e61 	cmnvc	r4, #1552	; 0x610
    a984:	000d0a3a 	andeq	r0, sp, sl, lsr sl
    a988:	613c4420 	teqvs	ip, r0, lsr #8
    a98c:	3e616161 	powccsz	f6, f1, f1
    a990:	63633c2c 	cmnvs	r3, #44, 24	; 0x2c00
    a994:	203e6363 	eorscs	r6, lr, r3, ror #6
    a998:	756f202d 	strbvc	r2, [pc, #-45]!	; a973 <__aeabi_idiv0+0x53>
    a99c:	74757074 	ldrbtvc	r7, [r5], #-116	; 0x74
    a9a0:	6d656d20 	stclvs	13, cr6, [r5, #-128]!	; 0xffffff80
    a9a4:	2079726f 	rsbscs	r7, r9, pc, ror #4
    a9a8:	746e6f63 	strbtvc	r6, [lr], #-3939	; 0xf63
    a9ac:	20746e65 	rsbscs	r6, r4, r5, ror #28
    a9b0:	6d6f7266 	sfmvs	f7, 2, [pc, #-408]!	; a820 <__aeabi_uidiv+0x14>
    a9b4:	61613c20 	cmnvs	r1, r0, lsr #24
    a9b8:	203e6161 	eorscs	r6, lr, r1, ror #2
    a9bc:	3c206f74 	stccc	15, cr6, [r0], #-464	; 0xfffffe30
    a9c0:	61616161 	cmnvs	r1, r1, ror #2
    a9c4:	202b203e 	eorcs	r2, fp, lr, lsr r0
    a9c8:	6363633c 	cmnvs	r3, #60, 6	; 0xf0000000
    a9cc:	0a2e3e63 	beq	b9a360 <dump_pointer+0xb7f4a8>
    a9d0:	0000000d 	andeq	r0, r0, sp
    a9d4:	20204420 	eorcs	r4, r0, r0, lsr #8
    a9d8:	20202020 	eorcs	r2, r0, r0, lsr #32
    a9dc:	20202020 	eorcs	r2, r0, r0, lsr #32
    a9e0:	20202020 	eorcs	r2, r0, r0, lsr #32
    a9e4:	6f63202d 	svcvs	0x0063202d
    a9e8:	6e69746e 	cdpvs	4, 6, cr7, cr9, cr14, {3}
    a9ec:	6f206575 	svcvs	0x00206575
    a9f0:	75707475 	ldrbvc	r7, [r0, #-1141]!	; 0x475
    a9f4:	656d2074 	strbvs	r2, [sp, #-116]!	; 0x74
    a9f8:	79726f6d 	ldmdbvc	r2!, {r0, r2, r3, r5, r6, r8, r9, sl, fp, sp, lr}^
    a9fc:	6e6f6320 	cdpvs	3, 6, cr6, cr15, cr0, {1}
    aa00:	746e6574 	strbtvc	r6, [lr], #-1396	; 0x574
    aa04:	000d0a2e 	andeq	r0, sp, lr, lsr #20
    aa08:	20204d20 	eorcs	r4, r0, r0, lsr #26
    aa0c:	20202020 	eorcs	r2, r0, r0, lsr #32
    aa10:	20202020 	eorcs	r2, r0, r0, lsr #32
    aa14:	20202020 	eorcs	r2, r0, r0, lsr #32
    aa18:	756f202d 	strbvc	r2, [pc, #-45]!	; a9f3 <__aeabi_idiv0+0xd3>
    aa1c:	74757074 	ldrbtvc	r7, [r5], #-116	; 0x74
    aa20:	62656420 	rsbvs	r6, r5, #32, 8	; 0x20000000
    aa24:	64206775 	strtvs	r6, [r0], #-1909	; 0x775
    aa28:	20706d75 	rsbscs	r6, r0, r5, ror sp
    aa2c:	746e6f63 	strbtvc	r6, [lr], #-3939	; 0xf63
    aa30:	20746e65 	rsbscs	r6, r4, r5, ror #28
    aa34:	74206e69 	strtvc	r6, [r0], #-3689	; 0xe69
    aa38:	20747865 	rsbscs	r7, r4, r5, ror #16
    aa3c:	6d726f66 	ldclvs	15, cr6, [r2, #-408]!	; 0xfffffe68
    aa40:	0a2e7461 	beq	ba7bcc <dump_pointer+0xb8cd14>
    aa44:	0000000d 	andeq	r0, r0, sp
    aa48:	20204220 	eorcs	r4, r0, r0, lsr #4
    aa4c:	20202020 	eorcs	r2, r0, r0, lsr #32
    aa50:	20202020 	eorcs	r2, r0, r0, lsr #32
    aa54:	20202020 	eorcs	r2, r0, r0, lsr #32
    aa58:	6573202d 	ldrbvs	r2, [r3, #-45]!	; 0x2d
    aa5c:	756f2074 	strbvc	r2, [pc, #-116]!	; a9f0 <__aeabi_idiv0+0xd0>
    aa60:	74757074 	ldrbtvc	r7, [r5], #-116	; 0x74
    aa64:	6d656d20 	stclvs	13, cr6, [r5, #-128]!	; 0xffffff80
    aa68:	2079726f 	rsbscs	r7, r9, pc, ror #4
    aa6c:	6d726f66 	ldclvs	15, cr6, [r2, #-408]!	; 0xfffffe68
    aa70:	69207461 	stmdbvs	r0!, {r0, r5, r6, sl, ip, sp, lr}
    aa74:	7962206e 	stmdbvc	r2!, {r1, r2, r3, r5, r6, sp}^
    aa78:	2e736574 	mrccs	5, 3, r6, cr3, cr4, {3}
    aa7c:	00000d0a 	andeq	r0, r0, sl, lsl #26
    aa80:	20205720 	eorcs	r5, r0, r0, lsr #14
    aa84:	20202020 	eorcs	r2, r0, r0, lsr #32
    aa88:	20202020 	eorcs	r2, r0, r0, lsr #32
    aa8c:	20202020 	eorcs	r2, r0, r0, lsr #32
    aa90:	6573202d 	ldrbvs	r2, [r3, #-45]!	; 0x2d
    aa94:	756f2074 	strbvc	r2, [pc, #-116]!	; aa28 <__aeabi_idiv0+0x108>
    aa98:	74757074 	ldrbtvc	r7, [r5], #-116	; 0x74
    aa9c:	6d656d20 	stclvs	13, cr6, [r5, #-128]!	; 0xffffff80
    aaa0:	2079726f 	rsbscs	r7, r9, pc, ror #4
    aaa4:	6d726f66 	ldclvs	15, cr6, [r2, #-408]!	; 0xfffffe68
    aaa8:	69207461 	stmdbvs	r0!, {r0, r5, r6, sl, ip, sp, lr}
    aaac:	6f77206e 	svcvs	0x0077206e
    aab0:	20736472 	rsbscs	r6, r3, r2, ror r4
    aab4:	62203228 	eorvs	r3, r0, #40, 4	; 0x80000002
    aab8:	73657479 	cmnvc	r5, #2030043136	; 0x79000000
    aabc:	0d0a2e29 	stceq	14, cr2, [sl, #-164]	; 0xffffff5c
    aac0:	00000000 	andeq	r0, r0, r0
    aac4:	20575720 	subscs	r5, r7, r0, lsr #14
    aac8:	20202020 	eorcs	r2, r0, r0, lsr #32
    aacc:	20202020 	eorcs	r2, r0, r0, lsr #32
    aad0:	20202020 	eorcs	r2, r0, r0, lsr #32
    aad4:	6573202d 	ldrbvs	r2, [r3, #-45]!	; 0x2d
    aad8:	756f2074 	strbvc	r2, [pc, #-116]!	; aa6c <__aeabi_idiv0+0x14c>
    aadc:	74757074 	ldrbtvc	r7, [r5], #-116	; 0x74
    aae0:	6d656d20 	stclvs	13, cr6, [r5, #-128]!	; 0xffffff80
    aae4:	2079726f 	rsbscs	r7, r9, pc, ror #4
    aae8:	6d726f66 	ldclvs	15, cr6, [r2, #-408]!	; 0xfffffe68
    aaec:	69207461 	stmdbvs	r0!, {r0, r5, r6, sl, ip, sp, lr}
    aaf0:	6f64206e 	svcvs	0x0064206e
    aaf4:	656c6275 	strbvs	r6, [ip, #-629]!	; 0x275
    aaf8:	726f7720 	rsbvc	r7, pc, #32, 14	; 0x800000
    aafc:	28207364 	stmdacs	r0!, {r2, r5, r6, r8, r9, ip, sp, lr}
    ab00:	79622034 	stmdbvc	r2!, {r2, r4, r5, sp}^
    ab04:	29736574 	ldmdbcs	r3!, {r2, r4, r5, r6, r8, sl, sp, lr}^
    ab08:	000d0a2e 	andeq	r0, sp, lr, lsr #20
    ab0c:	20204c20 	eorcs	r4, r0, r0, lsr #24
    ab10:	20202020 	eorcs	r2, r0, r0, lsr #32
    ab14:	20202020 	eorcs	r2, r0, r0, lsr #32
    ab18:	20202020 	eorcs	r2, r0, r0, lsr #32
    ab1c:	6f6c202d 	svcvs	0x006c202d
    ab20:	68206461 	stmdavs	r0!, {r0, r5, r6, sl, sp, lr}
    ab24:	66207865 	strtvs	r7, [r0], -r5, ror #16
    ab28:	2e656c69 	cdpcs	12, 6, cr6, cr5, cr9, {3}
    ab2c:	00000d0a 	andeq	r0, r0, sl, lsl #26
    ab30:	20204820 	eorcs	r4, r0, r0, lsr #16
    ab34:	20202020 	eorcs	r2, r0, r0, lsr #32
    ab38:	20202020 	eorcs	r2, r0, r0, lsr #32
    ab3c:	20202020 	eorcs	r2, r0, r0, lsr #32
    ab40:	756f202d 	strbvc	r2, [pc, #-45]!	; ab1b <__aeabi_idiv0+0x1fb>
    ab44:	74757074 	ldrbtvc	r7, [r5], #-116	; 0x74
    ab48:	6c656820 	stclvs	8, cr6, [r5], #-128	; 0xffffff80
    ab4c:	656d2070 	strbvs	r2, [sp, #-112]!	; 0x70
    ab50:	67617373 			; <UNDEFINED> instruction: 0x67617373
    ab54:	0d0a2e65 	stceq	14, cr2, [sl, #-404]	; 0xfffffe6c
    ab58:	00000000 	andeq	r0, r0, r0
    ab5c:	613c4720 	teqvs	ip, r0, lsr #14
    ab60:	3e616161 	powccsz	f6, f1, f1
    ab64:	20202020 	eorcs	r2, r0, r0, lsr #32
    ab68:	20202020 	eorcs	r2, r0, r0, lsr #32
    ab6c:	7572202d 	ldrbvc	r2, [r2, #-45]!	; 0x2d
    ab70:	6f63206e 	svcvs	0x0063206e
    ab74:	61206564 	teqvs	r0, r4, ror #10
    ab78:	613c2074 	teqvs	ip, r4, ror r0
    ab7c:	3e616161 	powccsz	f6, f1, f1
    ab80:	64646120 	strbtvs	r6, [r4], #-288	; 0x120
    ab84:	73736572 	cmnvc	r3, #478150656	; 0x1c800000
    ab88:	000d0a2e 	andeq	r0, sp, lr, lsr #20
    ab8c:	20296825 	eorcs	r6, r9, r5, lsr #16
    ab90:	0a0d6825 	beq	364c2c <dump_pointer+0x349d74>
    ab94:	00000000 	andeq	r0, r0, r0
    ab98:	20646e65 	rsbcs	r6, r4, r5, ror #28
    ab9c:	6620666f 	strtvs	r6, [r0], -pc, ror #12
    aba0:	2e656c69 	cdpcs	12, 6, cr6, cr5, cr9, {3}
    aba4:	00000d0a 	andeq	r0, r0, sl, lsl #26
    aba8:	65747865 	ldrbvs	r7, [r4, #-2149]!	; 0x865
    abac:	6465646e 	strbtvs	r6, [r5], #-1134	; 0x46e
    abb0:	67657320 	strbvs	r7, [r5, -r0, lsr #6]!
    abb4:	746e656d 	strbtvc	r6, [lr], #-1389	; 0x56d
    abb8:	64646120 	strbtvs	r6, [r4], #-288	; 0x120
    abbc:	73736572 	cmnvc	r3, #478150656	; 0x1c800000
    abc0:	3825203a 	stmdacc	r5!, {r1, r3, r4, r5, sp}
    abc4:	000d0a68 	andeq	r0, sp, r8, ror #20
    abc8:	65747865 	ldrbvs	r7, [r4, #-2149]!	; 0x865
    abcc:	6465646e 	strbtvs	r6, [r5], #-1134	; 0x46e
    abd0:	6e696c20 	cdpvs	12, 6, cr6, cr9, cr0, {1}
    abd4:	20726165 	rsbscs	r6, r2, r5, ror #2
    abd8:	72646461 	rsbvc	r6, r4, #1627389952	; 0x61000000
    abdc:	3a737365 	bcc	1ce7978 <dump_pointer+0x1cccac0>
    abe0:	68382520 	ldmdavs	r8!, {r5, r8, sl, sp}
    abe4:	00000d0a 	andeq	r0, r0, sl, lsl #26
    abe8:	72617473 	rsbvc	r7, r1, #1929379840	; 0x73000000
    abec:	676e6974 			; <UNDEFINED> instruction: 0x676e6974
    abf0:	64646120 	strbtvs	r6, [r4], #-288	; 0x120
    abf4:	73736572 	cmnvc	r3, #478150656	; 0x1c800000
    abf8:	3825203a 	stmdacc	r5!, {r1, r3, r4, r5, sp}
    abfc:	000d0a68 	andeq	r0, sp, r8, ror #20
    ac00:	2d2d2d20 	stccs	13, cr2, [sp, #-128]!	; 0xffffff80
    ac04:	6f725720 	svcvs	0x00725720
    ac08:	6320676e 	teqvs	r0, #28835840	; 0x1b80000
    ac0c:	0d0a2173 	stfeqs	f2, [sl, #-460]	; 0xfffffe34
    ac10:	00000000 	andeq	r0, r0, r0
    ac14:	6e490d0a 	cdpvs	13, 4, cr0, cr9, cr10, {0}
    ac18:	61697469 	cmnvs	r9, r9, ror #8
    ac1c:	6e49206c 	cdpvs	0, 4, cr2, cr9, cr12, {3}
    ac20:	61726574 	cmnvs	r2, r4, ror r5
    ac24:	76697463 	strbtvc	r7, [r9], -r3, ror #8
    ac28:	6f4c2065 	svcvs	0x004c2065
    ac2c:	72656461 	rsbvc	r6, r5, #1627389952	; 0x61000000
    ac30:	00000d0a 	andeq	r0, r0, sl, lsl #26
    ac34:	0000003e 	andeq	r0, r0, lr, lsr r0
    ac38:	3030303a 	eorscc	r3, r0, sl, lsr r0
    ac3c:	30303030 	eorscc	r3, r0, r0, lsr r0
    ac40:	0d464631 	stcleq	6, cr4, [r6, #-196]	; 0xffffff3c
    ac44:	0000000a 	andeq	r0, r0, sl

Disassembly of section .rodata:

0000ac48 <_ZZ13int2hexStringjPciE6digits>:
    ac48:	33323130 	teqcc	r2, #48, 2
    ac4c:	37363534 			; <UNDEFINED> instruction: 0x37363534
    ac50:	42413938 	submi	r3, r1, #56, 18	; 0xe0000
    ac54:	46454443 	strbmi	r4, [r5], -r3, asr #8

0000ac58 <_ZZ11intToStringPciicE6digits>:
    ac58:	33323130 	teqcc	r2, #48, 2
    ac5c:	37363534 			; <UNDEFINED> instruction: 0x37363534
    ac60:	42413938 	submi	r3, r1, #56, 18	; 0xe0000
    ac64:	46454443 	strbmi	r4, [r5], -r3, asr #8

Disassembly of section .data:

0000ac68 <pSYS_TIMER_CMP_1>:
    ac68:	3f003010 	svccc	0x00003010

0000ac6c <pSYS_TIMER_COUNT_LO>:
    ac6c:	3f003004 	svccc	0x00003004

0000ac70 <pSYS_TIMER_CNTRL_STAT>:
    ac70:	3f003000 	svccc	0x00003000

0000ac74 <pENABLE_IRQ_1>:
    ac74:	3f00b210 	svccc	0x0000b210

0000ac78 <pARM_TIMER_LD>:
    ac78:	3f00b400 	svccc	0x0000b400

0000ac7c <pARM_TIMER_CTL>:
    ac7c:	3f00b408 	svccc	0x0000b408

0000ac80 <pARM_TIMER_PDIV>:
    ac80:	3f00b41c 	svccc	0x0000b41c

0000ac84 <pENABLE_IRQ_B>:
    ac84:	3f00b218 	svccc	0x0000b218

0000ac88 <_ZN4Gpio7pGPFSELE>:
    ac88:	3f200000 	svccc	0x00200000

0000ac8c <_ZN4Gpio6pGPCLRE>:
    ac8c:	3f200028 	svccc	0x00200028

0000ac90 <_ZN4Gpio6pGPSETE>:
    ac90:	3f20001c 	svccc	0x0020001c

0000ac94 <pAUX_MU_STAT_REG>:
    ac94:	3f215064 	svccc	0x00215064

0000ac98 <pAUX_MU_IO_REG>:
    ac98:	3f215040 	svccc	0x00215040

0000ac9c <pAUX_MU_IER_REG>:
    ac9c:	3f215044 	svccc	0x00215044

0000aca0 <pDISABLE_IRQ_1>:
    aca0:	3f00b21c 	svccc	0x0000b21c

0000aca4 <pAUX_ENABLES>:
    aca4:	3f215004 	svccc	0x00215004

0000aca8 <pAUX_MU_CNTL_REG>:
    aca8:	3f215060 	svccc	0x00215060

0000acac <pAUX_MU_LCR_REG>:
    acac:	3f21504c 	svccc	0x0021504c

0000acb0 <pAUX_MU_MCR_REG>:
    acb0:	3f215050 	svccc	0x00215050

0000acb4 <pAUX_MU_IIR_REG>:
    acb4:	3f215048 	svccc	0x00215048

0000acb8 <pAUX_MU_BAUD_REG>:
    acb8:	3f215068 	svccc	0x00215068

0000acbc <_ZN4Gpio6pGPPUDE>:
    acbc:	3f200094 	svccc	0x00200094

0000acc0 <_ZN4Gpio9pGPPUDCLKE>:
    acc0:	3f200098 	svccc	0x00200098

0000acc4 <pPENDING_IRQ_B>:
    acc4:	3f00b200 	svccc	0x0000b200

0000acc8 <pARM_TIMER_IRQ>:
    acc8:	3f00b40c 	svccc	0x0000b40c

0000accc <pPENDING_IRQ_1>:
    accc:	3f00b204 	svccc	0x0000b204

0000acd0 <mailbox>:
    acd0:	3f00b880 	svccc	0x0000b880

0000acd4 <pSYS_TIMER_CMP_3>:
    acd4:	3f003018 	svccc	0x00003018

0000acd8 <pSYS_TIMER_CMP_2>:
    acd8:	3f003014 	svccc	0x00003014

0000acdc <pSYS_TIMER_CMP_0>:
    acdc:	3f00300c 	svccc	0x0000300c

0000ace0 <pSYS_TIMER_COUNT_HI>:
    ace0:	3f003008 	svccc	0x00003008

0000ace4 <pAUX_MU_SCRATCH>:
    ace4:	3f21505c 	svccc	0x0021505c

0000ace8 <pAUX_MU_MSR_REG>:
    ace8:	3f215058 	svccc	0x00215058

0000acec <pAUX_MU_LSR_REG>:
    acec:	3f215054 	svccc	0x00215054

0000acf0 <pAUX_IRQ>:
    acf0:	3f215000 	svccc	0x00215000

0000acf4 <pARM_TIMER_CNT>:
    acf4:	3f00b420 	svccc	0x0000b420

0000acf8 <pARM_TIMER_RLD>:
    acf8:	3f00b418 	svccc	0x0000b418

0000acfc <pARM_TIMER_MSK_IRQ>:
    acfc:	3f00b414 	svccc	0x0000b414

0000ad00 <pARM_TIMER_RAW_IRQ>:
    ad00:	3f00b410 	svccc	0x0000b410

0000ad04 <pARM_TIMER_VAL>:
    ad04:	3f00b404 	svccc	0x0000b404

0000ad08 <pDISABLE_IRQ_B>:
    ad08:	3f00b224 	svccc	0x0000b224

0000ad0c <pDISABLE_IRQ_2>:
    ad0c:	3f00b220 	svccc	0x0000b220

0000ad10 <pENABLE_IRQ_2>:
    ad10:	3f00b214 	svccc	0x0000b214

0000ad14 <pPENDING_IRQ_2>:
    ad14:	3f00b208 	svccc	0x0000b208

0000ad18 <_ZN4Gpio6pGPLEVE>:
    ad18:	3f200034 	svccc	0x00200034

Disassembly of section .init_array:

0000ad1c <.init_array>:
    ad1c:	0000825c 	andeq	r8, r0, ip, asr r2

Disassembly of section .bss:

0000ad20 <fp>:
	...

0000ad3c <out>:
	...

0000ad8c <gpio47>:
    ad8c:	00000000 	andeq	r0, r0, r0

0000ad90 <gpio10>:
    ad90:	00000000 	andeq	r0, r0, r0

0000ad94 <gpio22>:
    ad94:	00000000 	andeq	r0, r0, r0

0000ad98 <_ZZ21irq_handler_sys_timerE3tic>:
    ad98:	00000000 	andeq	r0, r0, r0

0000ad9c <_ZZ21irq_handler_arm_timerE3tic>:
    ad9c:	00000000 	andeq	r0, r0, r0

0000ada0 <txhead>:
    ada0:	00000000 	andeq	r0, r0, r0

0000ada4 <txbuffer>:
	...

0001ad4c <.LANCHOR2>:
	...

0001ada4 <flag>:
   1ada4:	00000000 	andeq	r0, r0, r0

0001ada8 <txtail>:
   1ada8:	00000000 	andeq	r0, r0, r0

0001adac <rxtail>:
   1adac:	00000000 	andeq	r0, r0, r0

0001adb0 <rxhead>:
   1adb0:	00000000 	andeq	r0, r0, r0

0001adb4 <rxbuffer>:
	...

0001aeb4 <dump_pointer_storage>:
   1aeb4:	00000000 	andeq	r0, r0, r0

0001aeb8 <dump_pointer>:
   1aeb8:	00000000 	andeq	r0, r0, r0

Disassembly of section .ARM.attributes:

00000000 <.ARM.attributes>:
   0:	00003241 	andeq	r3, r0, r1, asr #4
   4:	61656100 	cmnvs	r5, r0, lsl #2
   8:	01006962 	tsteq	r0, r2, ror #18
   c:	00000028 	andeq	r0, r0, r8, lsr #32
  10:	412d3705 	teqmi	sp, r5, lsl #14
  14:	070a0600 	streq	r0, [sl, -r0, lsl #12]
  18:	09010841 	stmdbeq	r1, {r0, r6, fp}
  1c:	0c050a02 	stceq	10, cr0, [r5], {2}
  20:	14041202 	strne	r1, [r4], #-514	; 0x202
  24:	17011501 	strne	r1, [r1, -r1, lsl #10]
  28:	1a011803 	bne	4603c <dump_pointer+0x2b184>
  2c:	1c031b01 	stcne	11, cr1, [r3], {1}
  30:	Address 0x0000000000000030 is out of bounds.


Disassembly of section .comment:

00000000 <.comment>:
   0:	3a434347 	bcc	10d0d24 <dump_pointer+0x10b5e6c>
   4:	4e472820 	cdpmi	8, 4, cr2, cr7, cr0, {1}
   8:	6f542055 	svcvs	0x00542055
   c:	20736c6f 	rsbscs	r6, r3, pc, ror #24
  10:	20726f66 	rsbscs	r6, r2, r6, ror #30
  14:	204d5241 	subcs	r5, sp, r1, asr #4
  18:	65626d45 	strbvs	r6, [r2, #-3397]!	; 0xd45
  1c:	64656464 	strbtvs	r6, [r5], #-1124	; 0x464
  20:	6f725020 	svcvs	0x00725020
  24:	73736563 	cmnvc	r3, #415236096	; 0x18c00000
  28:	2973726f 	ldmdbcs	r3!, {r0, r1, r2, r3, r5, r6, r9, ip, sp, lr}^
  2c:	382e3420 	stmdacc	lr!, {r5, sl, ip, sp}
  30:	3220332e 	eorcc	r3, r0, #-1207959552	; 0xb8000000
  34:	30343130 	eorscc	r3, r4, r0, lsr r1
  38:	20383232 	eorscs	r3, r8, r2, lsr r2
  3c:	6c657228 	sfmvs	f7, 2, [r5], #-160	; 0xffffff60
  40:	65736165 	ldrbvs	r6, [r3, #-357]!	; 0x165
  44:	415b2029 	cmpmi	fp, r9, lsr #32
  48:	652f4d52 	strvs	r4, [pc, #-3410]!	; fffff2fe <dump_pointer+0xfffe4446>
  4c:	6465626d 	strbtvs	r6, [r5], #-621	; 0x26d
  50:	2d646564 	cfstr64cs	mvdx6, [r4, #-400]!	; 0xfffffe70
  54:	2d385f34 	ldccs	15, cr5, [r8, #-208]!	; 0xffffff30
  58:	6e617262 	cdpvs	2, 6, cr7, cr1, cr2, {3}
  5c:	72206863 	eorvc	r6, r0, #6488064	; 0x630000
  60:	73697665 	cmnvc	r9, #105906176	; 0x6500000
  64:	206e6f69 	rsbcs	r6, lr, r9, ror #30
  68:	33383032 	teqcc	r8, #50	; 0x32
  6c:	005d3232 	subseq	r3, sp, r2, lsr r2

Disassembly of section .debug_frame:

00000000 <.debug_frame>:
   0:	0000000c 	andeq	r0, r0, ip
   4:	ffffffff 			; <UNDEFINED> instruction: 0xffffffff
   8:	7c010001 	stcvc	0, cr0, [r1], {1}
   c:	000d0c0e 	andeq	r0, sp, lr, lsl #24
  10:	0000000c 	andeq	r0, r0, ip
  14:	00000000 	andeq	r0, r0, r0
  18:	0000a80c 	andeq	sl, r0, ip, lsl #16
  1c:	000000f4 	strdeq	r0, [r0], -r4
