
LoadableApp.elf:     file format elf32-littlearm


Disassembly of section .text:

00010000 <_start>:
   10000:	e30001d2 	movw	r0, #466	; 0x1d2
   10004:	e121f000 	msr	CPSR_c, r0
   10008:	e3a0d5fd 	mov	sp, #1061158912	; 0x3f400000
   1000c:	e30001d1 	movw	r0, #465	; 0x1d1
   10010:	e121f000 	msr	CPSR_c, r0
   10014:	e3a0d5fe 	mov	sp, #1065353216	; 0x3f800000
   10018:	e30001d3 	movw	r0, #467	; 0x1d3
   1001c:	e121f000 	msr	CPSR_c, r0
   10020:	e3a0d43f 	mov	sp, #1056964608	; 0x3f000000
   10024:	eb00002a 	bl	100d4 <main>

00010028 <hang>:
   10028:	eafffffe 	b	10028 <hang>

0001002c <GOTO>:
   1002c:	e12fff30 	blx	r0
   10030:	eafffffc 	b	10028 <hang>

00010034 <exception_vectors>:
   10034:	e59ff018 	ldr	pc, [pc, #24]	; 10054 <exception_handlers_table>
   10038:	e59ff018 	ldr	pc, [pc, #24]	; 10058 <undefined_irq_entry>
   1003c:	e59ff018 	ldr	pc, [pc, #24]	; 1005c <swi_irq_entry>
   10040:	e59ff018 	ldr	pc, [pc, #24]	; 10060 <prefetch_irq_entry>
   10044:	e59ff018 	ldr	pc, [pc, #24]	; 10064 <data_irq_entry>
   10048:	e59ff018 	ldr	pc, [pc, #24]	; 10068 <unused_irq_entry>
   1004c:	e59ff018 	ldr	pc, [pc, #24]	; 1006c <irq_entry>
   10050:	e59ff018 	ldr	pc, [pc, #24]	; 10070 <fiq_entry>

00010054 <exception_handlers_table>:
   10054:	000100d0 	ldrdeq	r0, [r1], -r0	; <UNPREDICTABLE>

00010058 <undefined_irq_entry>:
   10058:	000100d0 	ldrdeq	r0, [r1], -r0	; <UNPREDICTABLE>

0001005c <swi_irq_entry>:
   1005c:	000100b0 	strheq	r0, [r1], -r0	; <UNPREDICTABLE>

00010060 <prefetch_irq_entry>:
   10060:	000100d0 	ldrdeq	r0, [r1], -r0	; <UNPREDICTABLE>

00010064 <data_irq_entry>:
   10064:	000100d0 	ldrdeq	r0, [r1], -r0	; <UNPREDICTABLE>

00010068 <unused_irq_entry>:
   10068:	000100d0 	ldrdeq	r0, [r1], -r0	; <UNPREDICTABLE>

0001006c <irq_entry>:
   1006c:	0001008c 	andeq	r0, r1, ip, lsl #1

00010070 <fiq_entry>:
   10070:	000100d0 	ldrdeq	r0, [r1], -r0	; <UNPREDICTABLE>

00010074 <enable_irq>:
   10074:	f1080080 	cpsie	i
   10078:	e12fff1e 	bx	lr

0001007c <disable_irq>:
   1007c:	f10c0080 	cpsid	i
   10080:	e12fff1e 	bx	lr

00010084 <get_sp>:
   10084:	e1a0000d 	mov	r0, sp
   10088:	e12fff1e 	bx	lr

0001008c <irq_handler>:
   1008c:	e24ee004 	sub	lr, lr, #4
   10090:	f96d0513 	srsdb	sp!, #19
   10094:	f1020013 	cps	#19
   10098:	e92d5fff 	push	{r0, r1, r2, r3, r4, r5, r6, r7, r8, r9, sl, fp, ip, lr}
   1009c:	e1a0000d 	mov	r0, sp
   100a0:	eb000209 	bl	108cc <isr>
   100a4:	e1a0d000 	mov	sp, r0
   100a8:	e8bd5fff 	pop	{r0, r1, r2, r3, r4, r5, r6, r7, r8, r9, sl, fp, ip, lr}
   100ac:	f8bd0a00 	rfeia	sp!

000100b0 <swi_handler>:
   100b0:	f96d0513 	srsdb	sp!, #19
   100b4:	e92d5fff 	push	{r0, r1, r2, r3, r4, r5, r6, r7, r8, r9, sl, fp, ip, lr}
   100b8:	e3a00010 	mov	r0, #16
   100bc:	e1a0100d 	mov	r1, sp
   100c0:	eb0001fc 	bl	108b8 <processInterrupt>
   100c4:	e1a0d000 	mov	sp, r0
   100c8:	e8bd5fff 	pop	{r0, r1, r2, r3, r4, r5, r6, r7, r8, r9, sl, fp, ip, lr}
   100cc:	f8bd0a00 	rfeia	sp!

000100d0 <data_abort_handler>:
   100d0:	eafffffe 	b	100d0 <data_abort_handler>

000100d4 <main>:
   100d4:	e30114d4 	movw	r1, #5332	; 0x14d4
   100d8:	e30124d8 	movw	r2, #5336	; 0x14d8
   100dc:	e92d4010 	push	{r4, lr}
   100e0:	e30134dc 	movw	r3, #5340	; 0x14dc
   100e4:	e3401001 	movt	r1, #1
   100e8:	e24dd038 	sub	sp, sp, #56	; 0x38
   100ec:	e3402001 	movt	r2, #1
   100f0:	e28dc008 	add	ip, sp, #8
   100f4:	e3403001 	movt	r3, #1
   100f8:	e28d0018 	add	r0, sp, #24
   100fc:	e581c000 	str	ip, [r1]
   10100:	e28d1028 	add	r1, sp, #40	; 0x28
   10104:	e5820000 	str	r0, [r2]
   10108:	e3a02004 	mov	r2, #4
   1010c:	e5831000 	str	r1, [r3]
   10110:	e3a03001 	mov	r3, #1
   10114:	e58d200c 	str	r2, [sp, #12]
   10118:	e3a01015 	mov	r1, #21
   1011c:	e58d3010 	str	r3, [sp, #16]
   10120:	e3a02902 	mov	r2, #32768	; 0x8000
   10124:	e58d301c 	str	r3, [sp, #28]
   10128:	e3a04000 	mov	r4, #0
   1012c:	e58d1008 	str	r1, [sp, #8]
   10130:	e3a03501 	mov	r3, #4194304	; 0x400000
   10134:	e58d2014 	str	r2, [sp, #20]
   10138:	e3a01002 	mov	r1, #2
   1013c:	e58d102c 	str	r1, [sp, #44]	; 0x2c
   10140:	e3a02006 	mov	r2, #6
   10144:	e58d2028 	str	r2, [sp, #40]	; 0x28
   10148:	e3a00b01 	mov	r0, #1024	; 0x400
   1014c:	e58d3034 	str	r3, [sp, #52]	; 0x34
   10150:	e58d0024 	str	r0, [sp, #36]	; 0x24
   10154:	e58d4020 	str	r4, [sp, #32]
   10158:	e58d4018 	str	r4, [sp, #24]
   1015c:	e58d4030 	str	r4, [sp, #48]	; 0x30
   10160:	eb000151 	bl	106ac <irq_vectors_setup>
   10164:	e3a00f7d 	mov	r0, #500	; 0x1f4
   10168:	eb000035 	bl	10244 <arm_timer_setup>
   1016c:	eb000047 	bl	10290 <led_setup>
   10170:	eb0000da 	bl	104e0 <uart_init>
   10174:	eb00016f 	bl	10738 <dump_debug_init>
   10178:	ebffffbd 	bl	10074 <enable_irq>
   1017c:	e30102c8 	movw	r0, #4808	; 0x12c8
   10180:	e3400001 	movt	r0, #1
   10184:	eb00009b 	bl	103f8 <sendString>
   10188:	e30102e4 	movw	r0, #4836	; 0x12e4
   1018c:	e3400001 	movt	r0, #1
   10190:	eb000098 	bl	103f8 <sendString>
   10194:	e3a02401 	mov	r2, #16777216	; 0x1000000
   10198:	e2522001 	subs	r2, r2, #1
   1019c:	1afffffd 	bne	10198 <main+0xc4>
   101a0:	ebffffb7 	bl	10084 <get_sp>
   101a4:	e58d0000 	str	r0, [sp]
   101a8:	e30103f0 	movw	r0, #5104	; 0x13f0
   101ac:	e3400001 	movt	r0, #1
   101b0:	e30122f4 	movw	r2, #4852	; 0x12f4
   101b4:	e3402001 	movt	r2, #1
   101b8:	e280101c 	add	r1, r0, #28
   101bc:	e1a03004 	mov	r3, r4
   101c0:	e2844001 	add	r4, r4, #1
   101c4:	eb000226 	bl	10a64 <_ZN12FormatParser6formatEPcPKcz>
   101c8:	e59f0004 	ldr	r0, [pc, #4]	; 101d4 <main+0x100>
   101cc:	eb000089 	bl	103f8 <sendString>
   101d0:	eaffffef 	b	10194 <main+0xc0>
   101d4:	0001140c 	andeq	r1, r1, ip, lsl #8

000101d8 <_GLOBAL__sub_I_out>:
   101d8:	e30133f0 	movw	r3, #5104	; 0x13f0
   101dc:	e300191c 	movw	r1, #2332	; 0x91c
   101e0:	e3403001 	movt	r3, #1
   101e4:	e3a02000 	mov	r2, #0
   101e8:	e3401001 	movt	r1, #1
   101ec:	e8830006 	stm	r3, {r1, r2}
   101f0:	e5832008 	str	r2, [r3, #8]
   101f4:	e5832010 	str	r2, [r3, #16]
   101f8:	e5832014 	str	r2, [r3, #20]
   101fc:	e583200c 	str	r2, [r3, #12]
   10200:	e12fff1e 	bx	lr

00010204 <sys_timer_setup>:
   10204:	e3013338 	movw	r3, #4920	; 0x1338
   10208:	e3a02002 	mov	r2, #2
   1020c:	e3403001 	movt	r3, #1
   10210:	e52d4004 	push	{r4}		; (str r4, [sp, #-4]!)
   10214:	e5931004 	ldr	r1, [r3, #4]
   10218:	e593c000 	ldr	ip, [r3]
   1021c:	e5914000 	ldr	r4, [r1]
   10220:	e5930008 	ldr	r0, [r3, #8]
   10224:	e593100c 	ldr	r1, [r3, #12]
   10228:	e284393d 	add	r3, r4, #999424	; 0xf4000
   1022c:	e49d4004 	pop	{r4}		; (ldr r4, [sp], #4)
   10230:	e2833d09 	add	r3, r3, #576	; 0x240
   10234:	e58c3000 	str	r3, [ip]
   10238:	e5802000 	str	r2, [r0]
   1023c:	e5812000 	str	r2, [r1]
   10240:	e12fff1e 	bx	lr

00010244 <arm_timer_setup>:
   10244:	e92d00f0 	push	{r4, r5, r6, r7}
   10248:	e3013338 	movw	r3, #4920	; 0x1338
   1024c:	e0604280 	rsb	r4, r0, r0, lsl #5
   10250:	e3a0c0a2 	mov	ip, #162	; 0xa2
   10254:	e3403001 	movt	r3, #1
   10258:	e3a0107c 	mov	r1, #124	; 0x7c
   1025c:	e0800104 	add	r0, r0, r4, lsl #2
   10260:	e3a02001 	mov	r2, #1
   10264:	e5937010 	ldr	r7, [r3, #16]
   10268:	e5936014 	ldr	r6, [r3, #20]
   1026c:	e5935018 	ldr	r5, [r3, #24]
   10270:	e593301c 	ldr	r3, [r3, #28]
   10274:	e1a04200 	lsl	r4, r0, #4
   10278:	e5874000 	str	r4, [r7]
   1027c:	e586c000 	str	ip, [r6]
   10280:	e5851000 	str	r1, [r5]
   10284:	e5832000 	str	r2, [r3]
   10288:	e8bd00f0 	pop	{r4, r5, r6, r7}
   1028c:	e12fff1e 	bx	lr

00010290 <led_setup>:
   10290:	e30124d4 	movw	r2, #5332	; 0x14d4
   10294:	e3011338 	movw	r1, #4920	; 0x1338
   10298:	e3402001 	movt	r2, #1
   1029c:	e3401001 	movt	r1, #1
   102a0:	e592c000 	ldr	ip, [r2]
   102a4:	e5913020 	ldr	r3, [r1, #32]
   102a8:	e59c0004 	ldr	r0, [ip, #4]
   102ac:	e92d01f0 	push	{r4, r5, r6, r7, r8}
   102b0:	e3a05007 	mov	r5, #7
   102b4:	e7938100 	ldr	r8, [r3, r0, lsl #2]
   102b8:	e3a04001 	mov	r4, #1
   102bc:	e59c6000 	ldr	r6, [ip]
   102c0:	e5917024 	ldr	r7, [r1, #36]	; 0x24
   102c4:	e1c88615 	bic	r8, r8, r5, lsl r6
   102c8:	e1886614 	orr	r6, r8, r4, lsl r6
   102cc:	e7836100 	str	r6, [r3, r0, lsl #2]
   102d0:	e5920004 	ldr	r0, [r2, #4]
   102d4:	e59c6008 	ldr	r6, [ip, #8]
   102d8:	e59cc00c 	ldr	ip, [ip, #12]
   102dc:	e5911028 	ldr	r1, [r1, #40]	; 0x28
   102e0:	e787c106 	str	ip, [r7, r6, lsl #2]
   102e4:	e8901040 	ldm	r0, {r6, ip}
   102e8:	e5922008 	ldr	r2, [r2, #8]
   102ec:	e793710c 	ldr	r7, [r3, ip, lsl #2]
   102f0:	e1c77615 	bic	r7, r7, r5, lsl r6
   102f4:	e1876614 	orr	r6, r7, r4, lsl r6
   102f8:	e783610c 	str	r6, [r3, ip, lsl #2]
   102fc:	e590c008 	ldr	ip, [r0, #8]
   10300:	e590000c 	ldr	r0, [r0, #12]
   10304:	e781010c 	str	r0, [r1, ip, lsl #2]
   10308:	e5920004 	ldr	r0, [r2, #4]
   1030c:	e592c000 	ldr	ip, [r2]
   10310:	e7936100 	ldr	r6, [r3, r0, lsl #2]
   10314:	e1c65c15 	bic	r5, r6, r5, lsl ip
   10318:	e1854c14 	orr	r4, r5, r4, lsl ip
   1031c:	e7834100 	str	r4, [r3, r0, lsl #2]
   10320:	e5923008 	ldr	r3, [r2, #8]
   10324:	e592200c 	ldr	r2, [r2, #12]
   10328:	e8bd01f0 	pop	{r4, r5, r6, r7, r8}
   1032c:	e7812103 	str	r2, [r1, r3, lsl #2]
   10330:	e12fff1e 	bx	lr

00010334 <uart_recv>:
   10334:	e3011338 	movw	r1, #4920	; 0x1338
   10338:	e3401001 	movt	r1, #1
   1033c:	e591202c 	ldr	r2, [r1, #44]	; 0x2c
   10340:	ea000001 	b	1034c <uart_recv+0x18>
   10344:	e3130001 	tst	r3, #1
   10348:	1a000004 	bne	10360 <uart_recv+0x2c>
   1034c:	e5923000 	ldr	r3, [r2]
   10350:	e3130010 	tst	r3, #16
   10354:	0afffffa 	beq	10344 <uart_recv+0x10>
   10358:	e3a0002a 	mov	r0, #42	; 0x2a
   1035c:	e12fff1e 	bx	lr
   10360:	e5913030 	ldr	r3, [r1, #48]	; 0x30
   10364:	e5930000 	ldr	r0, [r3]
   10368:	e6ef0070 	uxtb	r0, r0
   1036c:	e12fff1e 	bx	lr

00010370 <uart_send>:
   10370:	e30134d4 	movw	r3, #5332	; 0x14d4
   10374:	e3012494 	movw	r2, #5268	; 0x1494
   10378:	e3403001 	movt	r3, #1
   1037c:	e92d0030 	push	{r4, r5}
   10380:	e593100c 	ldr	r1, [r3, #12]
   10384:	e3402002 	movt	r2, #2
   10388:	e0831001 	add	r1, r3, r1
   1038c:	e5c10010 	strb	r0, [r1, #16]
   10390:	e593100c 	ldr	r1, [r3, #12]
   10394:	e2811001 	add	r1, r1, #1
   10398:	e6ff1071 	uxth	r1, r1
   1039c:	e583100c 	str	r1, [r3, #12]
   103a0:	e5d21050 	ldrb	r1, [r2, #80]	; 0x50
   103a4:	e3510000 	cmp	r1, #0
   103a8:	1a000010 	bne	103f0 <uart_send+0x80>
   103ac:	e5920054 	ldr	r0, [r2, #84]	; 0x54
   103b0:	e3011338 	movw	r1, #4920	; 0x1338
   103b4:	e3401001 	movt	r1, #1
   103b8:	e3a0c007 	mov	ip, #7
   103bc:	e0833000 	add	r3, r3, r0
   103c0:	e3a00001 	mov	r0, #1
   103c4:	e5914030 	ldr	r4, [r1, #48]	; 0x30
   103c8:	e5d35010 	ldrb	r5, [r3, #16]
   103cc:	e5913034 	ldr	r3, [r1, #52]	; 0x34
   103d0:	e6ef1075 	uxtb	r1, r5
   103d4:	e5841000 	str	r1, [r4]
   103d8:	e5921054 	ldr	r1, [r2, #84]	; 0x54
   103dc:	e0811000 	add	r1, r1, r0
   103e0:	e6ff1071 	uxth	r1, r1
   103e4:	e5821054 	str	r1, [r2, #84]	; 0x54
   103e8:	e583c000 	str	ip, [r3]
   103ec:	e5c20050 	strb	r0, [r2, #80]	; 0x50
   103f0:	e8bd0030 	pop	{r4, r5}
   103f4:	e12fff1e 	bx	lr

000103f8 <sendString>:
   103f8:	e52d4004 	push	{r4}		; (str r4, [sp, #-4]!)
   103fc:	e5d02000 	ldrb	r2, [r0]
   10400:	e3520000 	cmp	r2, #0
   10404:	130134d4 	movwne	r3, #5332	; 0x14d4
   10408:	13403001 	movtne	r3, #1
   1040c:	0a000009 	beq	10438 <sendString+0x40>
   10410:	e593100c 	ldr	r1, [r3, #12]
   10414:	e0831001 	add	r1, r3, r1
   10418:	e5c12010 	strb	r2, [r1, #16]
   1041c:	e593200c 	ldr	r2, [r3, #12]
   10420:	e2822001 	add	r2, r2, #1
   10424:	e6ff2072 	uxth	r2, r2
   10428:	e583200c 	str	r2, [r3, #12]
   1042c:	e5f02001 	ldrb	r2, [r0, #1]!
   10430:	e3520000 	cmp	r2, #0
   10434:	1afffff5 	bne	10410 <sendString+0x18>
   10438:	e3013494 	movw	r3, #5268	; 0x1494
   1043c:	e3403002 	movt	r3, #2
   10440:	e5d32050 	ldrb	r2, [r3, #80]	; 0x50
   10444:	e3520000 	cmp	r2, #0
   10448:	1a000012 	bne	10498 <sendString+0xa0>
   1044c:	e5930054 	ldr	r0, [r3, #84]	; 0x54
   10450:	e30114d4 	movw	r1, #5332	; 0x14d4
   10454:	e3401001 	movt	r1, #1
   10458:	e3012338 	movw	r2, #4920	; 0x1338
   1045c:	e0811000 	add	r1, r1, r0
   10460:	e3a00001 	mov	r0, #1
   10464:	e3402001 	movt	r2, #1
   10468:	e3a0c007 	mov	ip, #7
   1046c:	e5d14010 	ldrb	r4, [r1, #16]
   10470:	e5921030 	ldr	r1, [r2, #48]	; 0x30
   10474:	e5922034 	ldr	r2, [r2, #52]	; 0x34
   10478:	e6ef4074 	uxtb	r4, r4
   1047c:	e5814000 	str	r4, [r1]
   10480:	e5931054 	ldr	r1, [r3, #84]	; 0x54
   10484:	e0811000 	add	r1, r1, r0
   10488:	e6ff1071 	uxth	r1, r1
   1048c:	e5831054 	str	r1, [r3, #84]	; 0x54
   10490:	e582c000 	str	ip, [r2]
   10494:	e5c30050 	strb	r0, [r3, #80]	; 0x50
   10498:	e49d4004 	pop	{r4}		; (ldr r4, [sp], #4)
   1049c:	e12fff1e 	bx	lr

000104a0 <read_rx_buffer>:
   104a0:	e3012494 	movw	r2, #5268	; 0x1494
   104a4:	e3402002 	movt	r2, #2
   104a8:	e5920058 	ldr	r0, [r2, #88]	; 0x58
   104ac:	e3013494 	movw	r3, #5268	; 0x1494
   104b0:	e592105c 	ldr	r1, [r2, #92]	; 0x5c
   104b4:	e3403002 	movt	r3, #2
   104b8:	e1500001 	cmp	r0, r1
   104bc:	0afffff9 	beq	104a8 <read_rx_buffer+0x8>
   104c0:	e5932058 	ldr	r2, [r3, #88]	; 0x58
   104c4:	e0832002 	add	r2, r3, r2
   104c8:	e5d20060 	ldrb	r0, [r2, #96]	; 0x60
   104cc:	e5932058 	ldr	r2, [r3, #88]	; 0x58
   104d0:	e2822001 	add	r2, r2, #1
   104d4:	e6ef2072 	uxtb	r2, r2
   104d8:	e5832058 	str	r2, [r3, #88]	; 0x58
   104dc:	e12fff1e 	bx	lr

000104e0 <uart_init>:
   104e0:	e3012338 	movw	r2, #4920	; 0x1338
   104e4:	e3a03000 	mov	r3, #0
   104e8:	e3402001 	movt	r2, #1
   104ec:	e300c10e 	movw	ip, #270	; 0x10e
   104f0:	e92d0ff0 	push	{r4, r5, r6, r7, r8, r9, sl, fp}
   104f4:	e3a04001 	mov	r4, #1
   104f8:	e5925038 	ldr	r5, [r2, #56]	; 0x38
   104fc:	e3a08003 	mov	r8, #3
   10500:	e592003c 	ldr	r0, [r2, #60]	; 0x3c
   10504:	e3a09006 	mov	r9, #6
   10508:	e595a000 	ldr	sl, [r5]
   1050c:	e3011494 	movw	r1, #5268	; 0x1494
   10510:	e5926034 	ldr	r6, [r2, #52]	; 0x34
   10514:	e5927040 	ldr	r7, [r2, #64]	; 0x40
   10518:	e38aa202 	orr	sl, sl, #536870912	; 0x20000000
   1051c:	e592b044 	ldr	fp, [r2, #68]	; 0x44
   10520:	e585a000 	str	sl, [r5]
   10524:	e3a0a901 	mov	sl, #16384	; 0x4000
   10528:	e5925048 	ldr	r5, [r2, #72]	; 0x48
   1052c:	e5804000 	str	r4, [r0]
   10530:	e592404c 	ldr	r4, [r2, #76]	; 0x4c
   10534:	e5920050 	ldr	r0, [r2, #80]	; 0x50
   10538:	e5863000 	str	r3, [r6]
   1053c:	e5873000 	str	r3, [r7]
   10540:	e58b8000 	str	r8, [fp]
   10544:	e5853000 	str	r3, [r5]
   10548:	e30154d4 	movw	r5, #5332	; 0x14d4
   1054c:	e5849000 	str	r9, [r4]
   10550:	e3a09005 	mov	r9, #5
   10554:	e5924020 	ldr	r4, [r2, #32]
   10558:	e580c000 	str	ip, [r0]
   1055c:	e5940004 	ldr	r0, [r4, #4]
   10560:	e592c054 	ldr	ip, [r2, #84]	; 0x54
   10564:	e3401002 	movt	r1, #2
   10568:	e3c00a07 	bic	r0, r0, #28672	; 0x7000
   1056c:	e3405001 	movt	r5, #1
   10570:	e3800a02 	orr	r0, r0, #8192	; 0x2000
   10574:	e5840004 	str	r0, [r4, #4]
   10578:	e594b004 	ldr	fp, [r4, #4]
   1057c:	e5920058 	ldr	r0, [r2, #88]	; 0x58
   10580:	e3cbb90e 	bic	fp, fp, #229376	; 0x38000
   10584:	e38bb801 	orr	fp, fp, #65536	; 0x10000
   10588:	e584b004 	str	fp, [r4, #4]
   1058c:	e3a04902 	mov	r4, #32768	; 0x8000
   10590:	e58c3000 	str	r3, [ip]
   10594:	e580a000 	str	sl, [r0]
   10598:	e58c3000 	str	r3, [ip]
   1059c:	e5803000 	str	r3, [r0]
   105a0:	e58c3000 	str	r3, [ip]
   105a4:	e5804000 	str	r4, [r0]
   105a8:	e58c3000 	str	r3, [ip]
   105ac:	e5803000 	str	r3, [r0]
   105b0:	e5813058 	str	r3, [r1, #88]	; 0x58
   105b4:	e592200c 	ldr	r2, [r2, #12]
   105b8:	e581305c 	str	r3, [r1, #92]	; 0x5c
   105bc:	e5813054 	str	r3, [r1, #84]	; 0x54
   105c0:	e585300c 	str	r3, [r5, #12]
   105c4:	e5c13050 	strb	r3, [r1, #80]	; 0x50
   105c8:	e5878000 	str	r8, [r7]
   105cc:	e5869000 	str	r9, [r6]
   105d0:	e5923000 	ldr	r3, [r2]
   105d4:	e8bd0ff0 	pop	{r4, r5, r6, r7, r8, r9, sl, fp}
   105d8:	e3833202 	orr	r3, r3, #536870912	; 0x20000000
   105dc:	e5823000 	str	r3, [r2]
   105e0:	e12fff1e 	bx	lr

000105e4 <irq_handler_mini_uart>:
   105e4:	e3013338 	movw	r3, #4920	; 0x1338
   105e8:	e3012494 	movw	r2, #5268	; 0x1494
   105ec:	e3403001 	movt	r3, #1
   105f0:	e30104d4 	movw	r0, #5332	; 0x14d4
   105f4:	e92d01f0 	push	{r4, r5, r6, r7, r8}
   105f8:	e3a07000 	mov	r7, #0
   105fc:	e3402002 	movt	r2, #2
   10600:	e3a06005 	mov	r6, #5
   10604:	e593104c 	ldr	r1, [r3, #76]	; 0x4c
   10608:	e5934030 	ldr	r4, [r3, #48]	; 0x30
   1060c:	e5935034 	ldr	r5, [r3, #52]	; 0x34
   10610:	e3400001 	movt	r0, #1
   10614:	e5913000 	ldr	r3, [r1]
   10618:	e3130001 	tst	r3, #1
   1061c:	1a00001c 	bne	10694 <irq_handler_mini_uart+0xb0>
   10620:	e3130004 	tst	r3, #4
   10624:	0a000008 	beq	1064c <irq_handler_mini_uart+0x68>
   10628:	e592c05c 	ldr	ip, [r2, #92]	; 0x5c
   1062c:	e5948000 	ldr	r8, [r4]
   10630:	e082c00c 	add	ip, r2, ip
   10634:	e6ef8078 	uxtb	r8, r8
   10638:	e5cc8060 	strb	r8, [ip, #96]	; 0x60
   1063c:	e592c05c 	ldr	ip, [r2, #92]	; 0x5c
   10640:	e28cc001 	add	ip, ip, #1
   10644:	e6efc07c 	uxtb	ip, ip
   10648:	e582c05c 	str	ip, [r2, #92]	; 0x5c
   1064c:	e3130002 	tst	r3, #2
   10650:	0affffef 	beq	10614 <irq_handler_mini_uart+0x30>
   10654:	e590c00c 	ldr	ip, [r0, #12]
   10658:	e5923054 	ldr	r3, [r2, #84]	; 0x54
   1065c:	e15c0003 	cmp	ip, r3
   10660:	0a00000e 	beq	106a0 <irq_handler_mini_uart+0xbc>
   10664:	e5923054 	ldr	r3, [r2, #84]	; 0x54
   10668:	e0803003 	add	r3, r0, r3
   1066c:	e5d33010 	ldrb	r3, [r3, #16]
   10670:	e6ef3073 	uxtb	r3, r3
   10674:	e5843000 	str	r3, [r4]
   10678:	e5923054 	ldr	r3, [r2, #84]	; 0x54
   1067c:	e2833001 	add	r3, r3, #1
   10680:	e6ff3073 	uxth	r3, r3
   10684:	e5823054 	str	r3, [r2, #84]	; 0x54
   10688:	e5913000 	ldr	r3, [r1]
   1068c:	e3130001 	tst	r3, #1
   10690:	0affffe2 	beq	10620 <irq_handler_mini_uart+0x3c>
   10694:	f10c0080 	cpsid	i
   10698:	e8bd01f0 	pop	{r4, r5, r6, r7, r8}
   1069c:	e12fff1e 	bx	lr
   106a0:	e5c27050 	strb	r7, [r2, #80]	; 0x50
   106a4:	e5856000 	str	r6, [r5]
   106a8:	eaffffd9 	b	10614 <irq_handler_mini_uart+0x30>

000106ac <irq_vectors_setup>:
   106ac:	e59f301c 	ldr	r3, [pc, #28]	; 106d0 <irq_vectors_setup+0x24>
   106b0:	e2831004 	add	r1, r3, #4
   106b4:	e2610000 	rsb	r0, r1, #0
   106b8:	e2831040 	add	r1, r3, #64	; 0x40
   106bc:	e5b32004 	ldr	r2, [r3, #4]!
   106c0:	e1530001 	cmp	r3, r1
   106c4:	e7832000 	str	r2, [r3, r0]
   106c8:	1afffffb 	bne	106bc <irq_vectors_setup+0x10>
   106cc:	e12fff1e 	bx	lr
   106d0:	00010030 	andeq	r0, r1, r0, lsr r0

000106d4 <dump_memory>:
   106d4:	e92d4070 	push	{r4, r5, r6, lr}
   106d8:	e2516000 	subs	r6, r1, #0
   106dc:	e24dd008 	sub	sp, sp, #8
   106e0:	da000012 	ble	10730 <dump_memory+0x5c>
   106e4:	e1a05000 	mov	r5, r0
   106e8:	e3a04000 	mov	r4, #0
   106ec:	e595c000 	ldr	ip, [r5]
   106f0:	e30103f0 	movw	r0, #5104	; 0x13f0
   106f4:	e3400001 	movt	r0, #1
   106f8:	e301140c 	movw	r1, #5132	; 0x140c
   106fc:	e3401001 	movt	r1, #1
   10700:	e3012308 	movw	r2, #4872	; 0x1308
   10704:	e58dc000 	str	ip, [sp]
   10708:	e1a03005 	mov	r3, r5
   1070c:	e3402001 	movt	r2, #1
   10710:	e2844001 	add	r4, r4, #1
   10714:	eb0000d2 	bl	10a64 <_ZN12FormatParser6formatEPcPKcz>
   10718:	e301040c 	movw	r0, #5132	; 0x140c
   1071c:	e2855004 	add	r5, r5, #4
   10720:	e3400001 	movt	r0, #1
   10724:	ebffff33 	bl	103f8 <sendString>
   10728:	e1540006 	cmp	r4, r6
   1072c:	1affffee 	bne	106ec <dump_memory+0x18>
   10730:	e28dd008 	add	sp, sp, #8
   10734:	e8bd8070 	pop	{r4, r5, r6, pc}

00010738 <dump_debug_init>:
   10738:	e3013494 	movw	r3, #5268	; 0x1494
   1073c:	e3a02203 	mov	r2, #805306368	; 0x30000000
   10740:	e3403002 	movt	r3, #2
   10744:	e3a01243 	mov	r1, #805306372	; 0x30000004
   10748:	e3a00000 	mov	r0, #0
   1074c:	e5832160 	str	r2, [r3, #352]	; 0x160
   10750:	e5831164 	str	r1, [r3, #356]	; 0x164
   10754:	e5821000 	str	r1, [r2]
   10758:	e5c20004 	strb	r0, [r2, #4]
   1075c:	e12fff1e 	bx	lr

00010760 <dump_debug_message>:
   10760:	e301c494 	movw	ip, #5268	; 0x1494
   10764:	e3a03a0f 	mov	r3, #61440	; 0xf000
   10768:	e340c002 	movt	ip, #2
   1076c:	e3433000 	movt	r3, #12288	; 0x3000
   10770:	e59c2164 	ldr	r2, [ip, #356]	; 0x164
   10774:	e52d4004 	push	{r4}		; (str r4, [sp, #-4]!)
   10778:	e1520003 	cmp	r2, r3
   1077c:	8a00000e 	bhi	107bc <dump_debug_message+0x5c>
   10780:	e1a0400c 	mov	r4, ip
   10784:	ea000000 	b	1078c <dump_debug_message+0x2c>
   10788:	e5942164 	ldr	r2, [r4, #356]	; 0x164
   1078c:	e2821001 	add	r1, r2, #1
   10790:	e3013494 	movw	r3, #5268	; 0x1494
   10794:	e58c1164 	str	r1, [ip, #356]	; 0x164
   10798:	e5d01000 	ldrb	r1, [r0]
   1079c:	e3403002 	movt	r3, #2
   107a0:	e5c21000 	strb	r1, [r2]
   107a4:	e4d02001 	ldrb	r2, [r0], #1
   107a8:	e3520000 	cmp	r2, #0
   107ac:	1afffff5 	bne	10788 <dump_debug_message+0x28>
   107b0:	e5932160 	ldr	r2, [r3, #352]	; 0x160
   107b4:	e5933164 	ldr	r3, [r3, #356]	; 0x164
   107b8:	e5823000 	str	r3, [r2]
   107bc:	e49d4004 	pop	{r4}		; (ldr r4, [sp], #4)
   107c0:	e12fff1e 	bx	lr

000107c4 <irq_handler_arm_timer>:
   107c4:	e92d4010 	push	{r4, lr}
   107c8:	e3014494 	movw	r4, #5268	; 0x1494
   107cc:	e3404002 	movt	r4, #2
   107d0:	e30103f0 	movw	r0, #5104	; 0x13f0
   107d4:	e3400001 	movt	r0, #1
   107d8:	e301140c 	movw	r1, #5132	; 0x140c
   107dc:	e5943168 	ldr	r3, [r4, #360]	; 0x168
   107e0:	e3012314 	movw	r2, #4884	; 0x1314
   107e4:	e3401001 	movt	r1, #1
   107e8:	e3402001 	movt	r2, #1
   107ec:	eb00009c 	bl	10a64 <_ZN12FormatParser6formatEPcPKcz>
   107f0:	e301040c 	movw	r0, #5132	; 0x140c
   107f4:	e3400001 	movt	r0, #1
   107f8:	ebffffd8 	bl	10760 <dump_debug_message>
   107fc:	e5943168 	ldr	r3, [r4, #360]	; 0x168
   10800:	e1a02fc3 	asr	r2, r3, #31
   10804:	e2831001 	add	r1, r3, #1
   10808:	e5841168 	str	r1, [r4, #360]	; 0x168
   1080c:	e1a02ea2 	lsr	r2, r2, #29
   10810:	e0833002 	add	r3, r3, r2
   10814:	e2033007 	and	r3, r3, #7
   10818:	e0623003 	rsb	r3, r2, r3
   1081c:	e3530007 	cmp	r3, #7
   10820:	979ff103 	ldrls	pc, [pc, r3, lsl #2]
   10824:	ea000014 	b	1087c <irq_handler_arm_timer+0xb8>
   10828:	00010848 	andeq	r0, r1, r8, asr #16
   1082c:	00010880 	andeq	r0, r1, r0, lsl #17
   10830:	00010848 	andeq	r0, r1, r8, asr #16
   10834:	00010880 	andeq	r0, r1, r0, lsl #17
   10838:	00010848 	andeq	r0, r1, r8, asr #16
   1083c:	00010848 	andeq	r0, r1, r8, asr #16
   10840:	00010880 	andeq	r0, r1, r0, lsl #17
   10844:	00010848 	andeq	r0, r1, r8, asr #16
   10848:	e30124d4 	movw	r2, #5332	; 0x14d4
   1084c:	e3013338 	movw	r3, #4920	; 0x1338
   10850:	e3402001 	movt	r2, #1
   10854:	e3403001 	movt	r3, #1
   10858:	e9920006 	ldmib	r2, {r1, r2}
   1085c:	e5910008 	ldr	r0, [r1, #8]
   10860:	e591c00c 	ldr	ip, [r1, #12]
   10864:	e5931024 	ldr	r1, [r3, #36]	; 0x24
   10868:	e5933028 	ldr	r3, [r3, #40]	; 0x28
   1086c:	e781c100 	str	ip, [r1, r0, lsl #2]
   10870:	e5921008 	ldr	r1, [r2, #8]
   10874:	e592200c 	ldr	r2, [r2, #12]
   10878:	e7832101 	str	r2, [r3, r1, lsl #2]
   1087c:	e8bd8010 	pop	{r4, pc}
   10880:	e30124d4 	movw	r2, #5332	; 0x14d4
   10884:	e3013338 	movw	r3, #4920	; 0x1338
   10888:	e3402001 	movt	r2, #1
   1088c:	e3403001 	movt	r3, #1
   10890:	e9920006 	ldmib	r2, {r1, r2}
   10894:	e5910008 	ldr	r0, [r1, #8]
   10898:	e591c00c 	ldr	ip, [r1, #12]
   1089c:	e5931028 	ldr	r1, [r3, #40]	; 0x28
   108a0:	e5933024 	ldr	r3, [r3, #36]	; 0x24
   108a4:	e781c100 	str	ip, [r1, r0, lsl #2]
   108a8:	e5921008 	ldr	r1, [r2, #8]
   108ac:	e592200c 	ldr	r2, [r2, #12]
   108b0:	e7832101 	str	r2, [r3, r1, lsl #2]
   108b4:	e8bd8010 	pop	{r4, pc}

000108b8 <processInterrupt>:
   108b8:	e92d4010 	push	{r4, lr}
   108bc:	e1a04001 	mov	r4, r1
   108c0:	ebffffbf 	bl	107c4 <irq_handler_arm_timer>
   108c4:	e1a00004 	mov	r0, r4
   108c8:	e8bd8010 	pop	{r4, pc}

000108cc <isr>:
   108cc:	e92d4038 	push	{r3, r4, r5, lr}
   108d0:	e3014338 	movw	r4, #4920	; 0x1338
   108d4:	e3404001 	movt	r4, #1
   108d8:	e1a05000 	mov	r5, r0
   108dc:	e594305c 	ldr	r3, [r4, #92]	; 0x5c
   108e0:	e5933000 	ldr	r3, [r3]
   108e4:	e3130001 	tst	r3, #1
   108e8:	1a000006 	bne	10908 <isr+0x3c>
   108ec:	e5943064 	ldr	r3, [r4, #100]	; 0x64
   108f0:	e5933000 	ldr	r3, [r3]
   108f4:	e3130202 	tst	r3, #536870912	; 0x20000000
   108f8:	0a000000 	beq	10900 <isr+0x34>
   108fc:	ebffff38 	bl	105e4 <irq_handler_mini_uart>
   10900:	e1a00005 	mov	r0, r5
   10904:	e8bd8038 	pop	{r3, r4, r5, pc}
   10908:	ebffffad 	bl	107c4 <irq_handler_arm_timer>
   1090c:	e5943060 	ldr	r3, [r4, #96]	; 0x60
   10910:	e3a02000 	mov	r2, #0
   10914:	e5832000 	str	r2, [r3]
   10918:	eafffff3 	b	108ec <isr+0x20>

0001091c <_ZN12FormatParser7initialEPKc>:
   1091c:	e590c008 	ldr	ip, [r0, #8]
   10920:	e1a03000 	mov	r3, r0
   10924:	e3a02000 	mov	r2, #0
   10928:	e3001964 	movw	r1, #2404	; 0x964
   1092c:	e5cc2000 	strb	r2, [ip]
   10930:	e3a00001 	mov	r0, #1
   10934:	e593c008 	ldr	ip, [r3, #8]
   10938:	e3401001 	movt	r1, #1
   1093c:	e5832010 	str	r2, [r3, #16]
   10940:	e5832014 	str	r2, [r3, #20]
   10944:	e5832004 	str	r2, [r3, #4]
   10948:	e583c00c 	str	ip, [r3, #12]
   1094c:	e5831000 	str	r1, [r3]
   10950:	e12fff1e 	bx	lr

00010954 <_ZN12FormatParser6finishEPKc>:
   10954:	e3a00001 	mov	r0, #1
   10958:	e12fff1e 	bx	lr

0001095c <_ZN12FormatParser5errorEPKc>:
   1095c:	e3a00001 	mov	r0, #1
   10960:	e12fff1e 	bx	lr

00010964 <_ZN12FormatParser4textEPKc>:
   10964:	e5d13000 	ldrb	r3, [r1]
   10968:	e3530000 	cmp	r3, #0
   1096c:	0a000011 	beq	109b8 <_ZN12FormatParser4textEPKc+0x54>
   10970:	e3530025 	cmp	r3, #37	; 0x25
   10974:	0a000006 	beq	10994 <_ZN12FormatParser4textEPKc+0x30>
   10978:	e590300c 	ldr	r3, [r0, #12]
   1097c:	e2832001 	add	r2, r3, #1
   10980:	e580200c 	str	r2, [r0, #12]
   10984:	e3a00001 	mov	r0, #1
   10988:	e5d12000 	ldrb	r2, [r1]
   1098c:	e5c32000 	strb	r2, [r3]
   10990:	e12fff1e 	bx	lr
   10994:	e3002e4c 	movw	r2, #3660	; 0xe4c
   10998:	e3a03000 	mov	r3, #0
   1099c:	e3402001 	movt	r2, #1
   109a0:	e5802000 	str	r2, [r0]
   109a4:	e5803014 	str	r3, [r0, #20]
   109a8:	e5803010 	str	r3, [r0, #16]
   109ac:	e5803004 	str	r3, [r0, #4]
   109b0:	e3a00001 	mov	r0, #1
   109b4:	e12fff1e 	bx	lr
   109b8:	e590100c 	ldr	r1, [r0, #12]
   109bc:	e3002954 	movw	r2, #2388	; 0x954
   109c0:	e3402001 	movt	r2, #1
   109c4:	e5c13000 	strb	r3, [r1]
   109c8:	e880000c 	stm	r0, {r2, r3}
   109cc:	e3a00001 	mov	r0, #1
   109d0:	e12fff1e 	bx	lr

000109d4 <_ZN12FormatParser10controlCmdEPKc>:
   109d4:	e52d4004 	push	{r4}		; (str r4, [sp, #-4]!)
   109d8:	e5d13000 	ldrb	r3, [r1]
   109dc:	e3530000 	cmp	r3, #0
   109e0:	0a000017 	beq	10a44 <_ZN12FormatParser10controlCmdEPKc+0x70>
   109e4:	e3530025 	cmp	r3, #37	; 0x25
   109e8:	0a00000b 	beq	10a1c <_ZN12FormatParser10controlCmdEPKc+0x48>
   109ec:	e590200c 	ldr	r2, [r0, #12]
   109f0:	e3003964 	movw	r3, #2404	; 0x964
   109f4:	e3403001 	movt	r3, #1
   109f8:	e3a0c000 	mov	ip, #0
   109fc:	e2824001 	add	r4, r2, #1
   10a00:	e580400c 	str	r4, [r0, #12]
   10a04:	e5d11000 	ldrb	r1, [r1]
   10a08:	e5c21000 	strb	r1, [r2]
   10a0c:	e8801008 	stm	r0, {r3, ip}
   10a10:	e49d4004 	pop	{r4}		; (ldr r4, [sp], #4)
   10a14:	e3a00001 	mov	r0, #1
   10a18:	e12fff1e 	bx	lr
   10a1c:	e3002e4c 	movw	r2, #3660	; 0xe4c
   10a20:	e3a03000 	mov	r3, #0
   10a24:	e3402001 	movt	r2, #1
   10a28:	e5802000 	str	r2, [r0]
   10a2c:	e5803004 	str	r3, [r0, #4]
   10a30:	e5803014 	str	r3, [r0, #20]
   10a34:	e5803010 	str	r3, [r0, #16]
   10a38:	e3a00001 	mov	r0, #1
   10a3c:	e49d4004 	pop	{r4}		; (ldr r4, [sp], #4)
   10a40:	e12fff1e 	bx	lr
   10a44:	e590100c 	ldr	r1, [r0, #12]
   10a48:	e300295c 	movw	r2, #2396	; 0x95c
   10a4c:	e3402001 	movt	r2, #1
   10a50:	e5c13000 	strb	r3, [r1]
   10a54:	e880000c 	stm	r0, {r2, r3}
   10a58:	e49d4004 	pop	{r4}		; (ldr r4, [sp], #4)
   10a5c:	e3a00001 	mov	r0, #1
   10a60:	e12fff1e 	bx	lr

00010a64 <_ZN12FormatParser6formatEPcPKcz>:
   10a64:	e92d000c 	push	{r2, r3}
   10a68:	e300391c 	movw	r3, #2332	; 0x91c
   10a6c:	e92d40f0 	push	{r4, r5, r6, r7, lr}
   10a70:	e24dd00c 	sub	sp, sp, #12
   10a74:	e3403001 	movt	r3, #1
   10a78:	e28d2024 	add	r2, sp, #36	; 0x24
   10a7c:	e5803000 	str	r3, [r0]
   10a80:	e3a03000 	mov	r3, #0
   10a84:	e5801008 	str	r1, [r0, #8]
   10a88:	e3006954 	movw	r6, #2388	; 0x954
   10a8c:	e5802018 	str	r2, [r0, #24]
   10a90:	e1a01003 	mov	r1, r3
   10a94:	e5803004 	str	r3, [r0, #4]
   10a98:	e300795c 	movw	r7, #2396	; 0x95c
   10a9c:	e59d5020 	ldr	r5, [sp, #32]
   10aa0:	e1a04000 	mov	r4, r0
   10aa4:	e58d2004 	str	r2, [sp, #4]
   10aa8:	ebffff9b 	bl	1091c <_ZN12FormatParser7initialEPKc>
   10aac:	e3406001 	movt	r6, #1
   10ab0:	e3407001 	movt	r7, #1
   10ab4:	ea00000a 	b	10ae4 <_ZN12FormatParser6formatEPcPKcz+0x80>
   10ab8:	e1530007 	cmp	r3, r7
   10abc:	0a00000c 	beq	10af4 <_ZN12FormatParser6formatEPcPKcz+0x90>
   10ac0:	e3100001 	tst	r0, #1
   10ac4:	e2852001 	add	r2, r5, #1
   10ac8:	008400c0 	addeq	r0, r4, r0, asr #1
   10acc:	179410c0 	ldrne	r1, [r4, r0, asr #1]
   10ad0:	108400c0 	addne	r0, r4, r0, asr #1
   10ad4:	17913003 	ldrne	r3, [r1, r3]
   10ad8:	e1a01005 	mov	r1, r5
   10adc:	e1a05002 	mov	r5, r2
   10ae0:	e12fff33 	blx	r3
   10ae4:	e5943000 	ldr	r3, [r4]
   10ae8:	e5940004 	ldr	r0, [r4, #4]
   10aec:	e1530006 	cmp	r3, r6
   10af0:	1afffff0 	bne	10ab8 <_ZN12FormatParser6formatEPcPKcz+0x54>
   10af4:	e3500000 	cmp	r0, #0
   10af8:	1afffff0 	bne	10ac0 <_ZN12FormatParser6formatEPcPKcz+0x5c>
   10afc:	e28dd00c 	add	sp, sp, #12
   10b00:	e8bd40f0 	pop	{r4, r5, r6, r7, lr}
   10b04:	e28dd008 	add	sp, sp, #8
   10b08:	e12fff1e 	bx	lr

00010b0c <_Z14stringToStringPcS_i>:
   10b0c:	e92d0070 	push	{r4, r5, r6}
   10b10:	e3520000 	cmp	r2, #0
   10b14:	e5d1c000 	ldrb	ip, [r1]
   10b18:	b3a04001 	movlt	r4, #1
   10b1c:	b2622000 	rsblt	r2, r2, #0
   10b20:	a3a04000 	movge	r4, #0
   10b24:	e35c0000 	cmp	ip, #0
   10b28:	0a000004 	beq	10b40 <_Z14stringToStringPcS_i+0x34>
   10b2c:	e3a0c000 	mov	ip, #0
   10b30:	e28cc001 	add	ip, ip, #1
   10b34:	e7d1300c 	ldrb	r3, [r1, ip]
   10b38:	e3530000 	cmp	r3, #0
   10b3c:	1afffffb 	bne	10b30 <_Z14stringToStringPcS_i+0x24>
   10b40:	e3520000 	cmp	r2, #0
   10b44:	0a000009 	beq	10b70 <_Z14stringToStringPcS_i+0x64>
   10b48:	e152000c 	cmp	r2, ip
   10b4c:	aa000008 	bge	10b74 <_Z14stringToStringPcS_i+0x68>
   10b50:	e0802002 	add	r2, r0, r2
   10b54:	e3a0302a 	mov	r3, #42	; 0x2a
   10b58:	e4c03001 	strb	r3, [r0], #1
   10b5c:	e1500002 	cmp	r0, r2
   10b60:	1afffffc 	bne	10b58 <_Z14stringToStringPcS_i+0x4c>
   10b64:	e1a00002 	mov	r0, r2
   10b68:	e8bd0070 	pop	{r4, r5, r6}
   10b6c:	e12fff1e 	bx	lr
   10b70:	e1a0200c 	mov	r2, ip
   10b74:	e3540000 	cmp	r4, #0
   10b78:	13a03000 	movne	r3, #0
   10b7c:	1a000009 	bne	10ba8 <_Z14stringToStringPcS_i+0x9c>
   10b80:	e06c3002 	rsb	r3, ip, r2
   10b84:	e3530000 	cmp	r3, #0
   10b88:	d1a03004 	movle	r3, r4
   10b8c:	da000005 	ble	10ba8 <_Z14stringToStringPcS_i+0x9c>
   10b90:	e0836000 	add	r6, r3, r0
   10b94:	e1a04000 	mov	r4, r0
   10b98:	e3a05020 	mov	r5, #32
   10b9c:	e4c45001 	strb	r5, [r4], #1
   10ba0:	e1540006 	cmp	r4, r6
   10ba4:	1afffffc 	bne	10b9c <_Z14stringToStringPcS_i+0x90>
   10ba8:	e35c0000 	cmp	ip, #0
   10bac:	1083c00c 	addne	ip, r3, ip
   10bb0:	10634001 	rsbne	r4, r3, r1
   10bb4:	0a000004 	beq	10bcc <_Z14stringToStringPcS_i+0xc0>
   10bb8:	e7d41003 	ldrb	r1, [r4, r3]
   10bbc:	e7c01003 	strb	r1, [r0, r3]
   10bc0:	e2833001 	add	r3, r3, #1
   10bc4:	e153000c 	cmp	r3, ip
   10bc8:	1afffffa 	bne	10bb8 <_Z14stringToStringPcS_i+0xac>
   10bcc:	e1520003 	cmp	r2, r3
   10bd0:	c0803003 	addgt	r3, r0, r3
   10bd4:	c3a01020 	movgt	r1, #32
   10bd8:	c0800002 	addgt	r0, r0, r2
   10bdc:	da000006 	ble	10bfc <_Z14stringToStringPcS_i+0xf0>
   10be0:	e4c31001 	strb	r1, [r3], #1
   10be4:	e1530000 	cmp	r3, r0
   10be8:	1afffffc 	bne	10be0 <_Z14stringToStringPcS_i+0xd4>
   10bec:	e1a02000 	mov	r2, r0
   10bf0:	e1a00002 	mov	r0, r2
   10bf4:	e8bd0070 	pop	{r4, r5, r6}
   10bf8:	e12fff1e 	bx	lr
   10bfc:	e0800002 	add	r0, r0, r2
   10c00:	eafffff9 	b	10bec <_Z14stringToStringPcS_i+0xe0>

00010c04 <_Z11intToStringPciic>:
   10c04:	e3530068 	cmp	r3, #104	; 0x68
   10c08:	e92d4ff0 	push	{r4, r5, r6, r7, r8, r9, sl, fp, lr}
   10c0c:	e1a07000 	mov	r7, r0
   10c10:	13a0500a 	movne	r5, #10
   10c14:	03a05010 	moveq	r5, #16
   10c18:	e2526000 	subs	r6, r2, #0
   10c1c:	b2666000 	rsblt	r6, r6, #0
   10c20:	b3a0a001 	movlt	sl, #1
   10c24:	a3a0a000 	movge	sl, #0
   10c28:	e24dd05c 	sub	sp, sp, #92	; 0x5c
   10c2c:	e3530075 	cmp	r3, #117	; 0x75
   10c30:	13530068 	cmpne	r3, #104	; 0x68
   10c34:	0a000001 	beq	10c40 <_Z11intToStringPciic+0x3c>
   10c38:	e3510000 	cmp	r1, #0
   10c3c:	ba00004e 	blt	10d7c <_Z11intToStringPciic+0x178>
   10c40:	e1a0b001 	mov	fp, r1
   10c44:	e3a03000 	mov	r3, #0
   10c48:	e58d3004 	str	r3, [sp, #4]
   10c4c:	e35b0000 	cmp	fp, #0
   10c50:	1a000030 	bne	10d18 <_Z11intToStringPciic+0x114>
   10c54:	e3a04001 	mov	r4, #1
   10c58:	e3a03030 	mov	r3, #48	; 0x30
   10c5c:	e5cd3008 	strb	r3, [sp, #8]
   10c60:	e59d3004 	ldr	r3, [sp, #4]
   10c64:	e3530001 	cmp	r3, #1
   10c68:	028d1058 	addeq	r1, sp, #88	; 0x58
   10c6c:	03a0202d 	moveq	r2, #45	; 0x2d
   10c70:	00813004 	addeq	r3, r1, r4
   10c74:	02844001 	addeq	r4, r4, #1
   10c78:	05432050 	strbeq	r2, [r3, #-80]	; 0x50
   10c7c:	e3560000 	cmp	r6, #0
   10c80:	0a000022 	beq	10d10 <_Z11intToStringPciic+0x10c>
   10c84:	e1560004 	cmp	r6, r4
   10c88:	ba000032 	blt	10d58 <_Z11intToStringPciic+0x154>
   10c8c:	e28d0008 	add	r0, sp, #8
   10c90:	e35a0000 	cmp	sl, #0
   10c94:	13a05000 	movne	r5, #0
   10c98:	11a01007 	movne	r1, r7
   10c9c:	1a00000a 	bne	10ccc <_Z11intToStringPciic+0xc8>
   10ca0:	e0645006 	rsb	r5, r4, r6
   10ca4:	e3550000 	cmp	r5, #0
   10ca8:	d1a0500a 	movle	r5, sl
   10cac:	d1a01007 	movle	r1, r7
   10cb0:	da000005 	ble	10ccc <_Z11intToStringPciic+0xc8>
   10cb4:	e0871005 	add	r1, r7, r5
   10cb8:	e1a02007 	mov	r2, r7
   10cbc:	e3a0c020 	mov	ip, #32
   10cc0:	e4c2c001 	strb	ip, [r2], #1
   10cc4:	e1520001 	cmp	r2, r1
   10cc8:	1afffffc 	bne	10cc0 <_Z11intToStringPciic+0xbc>
   10ccc:	e0803004 	add	r3, r0, r4
   10cd0:	e573c001 	ldrb	ip, [r3, #-1]!
   10cd4:	e1530000 	cmp	r3, r0
   10cd8:	e4c1c001 	strb	ip, [r1], #1
   10cdc:	1afffffb 	bne	10cd0 <_Z11intToStringPciic+0xcc>
   10ce0:	e0843005 	add	r3, r4, r5
   10ce4:	e1560003 	cmp	r6, r3
   10ce8:	d0870006 	addle	r0, r7, r6
   10cec:	da000005 	ble	10d08 <_Z11intToStringPciic+0x104>
   10cf0:	e0873003 	add	r3, r7, r3
   10cf4:	e3a02020 	mov	r2, #32
   10cf8:	e0870006 	add	r0, r7, r6
   10cfc:	e4c32001 	strb	r2, [r3], #1
   10d00:	e1530000 	cmp	r3, r0
   10d04:	1afffffc 	bne	10cfc <_Z11intToStringPciic+0xf8>
   10d08:	e28dd05c 	add	sp, sp, #92	; 0x5c
   10d0c:	e8bd8ff0 	pop	{r4, r5, r6, r7, r8, r9, sl, fp, pc}
   10d10:	e1a06004 	mov	r6, r4
   10d14:	eaffffdc 	b	10c8c <_Z11intToStringPciic+0x88>
   10d18:	e3019328 	movw	r9, #4904	; 0x1328
   10d1c:	e28d8007 	add	r8, sp, #7
   10d20:	e3409001 	movt	r9, #1
   10d24:	e3a04000 	mov	r4, #0
   10d28:	e1a0000b 	mov	r0, fp
   10d2c:	e1a01005 	mov	r1, r5
   10d30:	eb00015b 	bl	112a4 <__aeabi_uidivmod>
   10d34:	e7d92001 	ldrb	r2, [r9, r1]
   10d38:	e1a0000b 	mov	r0, fp
   10d3c:	e1a01005 	mov	r1, r5
   10d40:	e2844001 	add	r4, r4, #1
   10d44:	e5e82001 	strb	r2, [r8, #1]!
   10d48:	eb000118 	bl	111b0 <__aeabi_uidiv>
   10d4c:	e250b000 	subs	fp, r0, #0
   10d50:	1afffff4 	bne	10d28 <_Z11intToStringPciic+0x124>
   10d54:	eaffffc1 	b	10c60 <_Z11intToStringPciic+0x5c>
   10d58:	e3a03000 	mov	r3, #0
   10d5c:	e28d0008 	add	r0, sp, #8
   10d60:	e3a0202a 	mov	r2, #42	; 0x2a
   10d64:	e7c02003 	strb	r2, [r0, r3]
   10d68:	e2833001 	add	r3, r3, #1
   10d6c:	e1560003 	cmp	r6, r3
   10d70:	cafffffb 	bgt	10d64 <_Z11intToStringPciic+0x160>
   10d74:	e1a04006 	mov	r4, r6
   10d78:	eaffffc4 	b	10c90 <_Z11intToStringPciic+0x8c>
   10d7c:	e261b000 	rsb	fp, r1, #0
   10d80:	e3a03001 	mov	r3, #1
   10d84:	e58d3004 	str	r3, [sp, #4]
   10d88:	eaffffaf 	b	10c4c <_Z11intToStringPciic+0x48>

00010d8c <_ZN12FormatParser12processParamEPKc>:
   10d8c:	e5903010 	ldr	r3, [r0, #16]
   10d90:	e1a0c001 	mov	ip, r1
   10d94:	e5902014 	ldr	r2, [r0, #20]
   10d98:	e3530001 	cmp	r3, #1
   10d9c:	02622000 	rsbeq	r2, r2, #0
   10da0:	e92d4010 	push	{r4, lr}
   10da4:	e1a04000 	mov	r4, r0
   10da8:	05802014 	streq	r2, [r0, #20]
   10dac:	e24dd008 	sub	sp, sp, #8
   10db0:	e5d13000 	ldrb	r3, [r1]
   10db4:	e3530063 	cmp	r3, #99	; 0x63
   10db8:	0a000017 	beq	10e1c <_ZN12FormatParser12processParamEPKc+0x90>
   10dbc:	e3530073 	cmp	r3, #115	; 0x73
   10dc0:	e5903018 	ldr	r3, [r0, #24]
   10dc4:	e590000c 	ldr	r0, [r0, #12]
   10dc8:	0a00000d 	beq	10e04 <_ZN12FormatParser12processParamEPKc+0x78>
   10dcc:	e5931000 	ldr	r1, [r3]
   10dd0:	e2833004 	add	r3, r3, #4
   10dd4:	e5843018 	str	r3, [r4, #24]
   10dd8:	e5dc3000 	ldrb	r3, [ip]
   10ddc:	ebffff88 	bl	10c04 <_Z11intToStringPciic>
   10de0:	e584000c 	str	r0, [r4, #12]
   10de4:	e30039d4 	movw	r3, #2516	; 0x9d4
   10de8:	e3a02000 	mov	r2, #0
   10dec:	e3403001 	movt	r3, #1
   10df0:	e3a00001 	mov	r0, #1
   10df4:	e5843000 	str	r3, [r4]
   10df8:	e5842004 	str	r2, [r4, #4]
   10dfc:	e28dd008 	add	sp, sp, #8
   10e00:	e8bd8010 	pop	{r4, pc}
   10e04:	e2831004 	add	r1, r3, #4
   10e08:	e5841018 	str	r1, [r4, #24]
   10e0c:	e5931000 	ldr	r1, [r3]
   10e10:	ebffff3d 	bl	10b0c <_Z14stringToStringPcS_i>
   10e14:	e584000c 	str	r0, [r4, #12]
   10e18:	eafffff1 	b	10de4 <_ZN12FormatParser12processParamEPKc+0x58>
   10e1c:	e5903018 	ldr	r3, [r0, #24]
   10e20:	e3a0c000 	mov	ip, #0
   10e24:	e590000c 	ldr	r0, [r0, #12]
   10e28:	e28d1004 	add	r1, sp, #4
   10e2c:	e593e000 	ldr	lr, [r3]
   10e30:	e2833004 	add	r3, r3, #4
   10e34:	e5843018 	str	r3, [r4, #24]
   10e38:	e5cde004 	strb	lr, [sp, #4]
   10e3c:	e5cdc005 	strb	ip, [sp, #5]
   10e40:	ebffff31 	bl	10b0c <_Z14stringToStringPcS_i>
   10e44:	e584000c 	str	r0, [r4, #12]
   10e48:	eaffffe5 	b	10de4 <_ZN12FormatParser12processParamEPKc+0x58>

00010e4c <_ZN12FormatParser7controlEPKc>:
   10e4c:	e92d4010 	push	{r4, lr}
   10e50:	e5d12000 	ldrb	r2, [r1]
   10e54:	e2423025 	sub	r3, r2, #37	; 0x25
   10e58:	e3530050 	cmp	r3, #80	; 0x50
   10e5c:	979ff103 	ldrls	pc, [pc, r3, lsl #2]
   10e60:	ea00006b 	b	11014 <_ZN12FormatParser7controlEPKc+0x1c8>
   10e64:	00010fe8 	andeq	r0, r1, r8, ror #31
   10e68:	00011014 	andeq	r1, r1, r4, lsl r0
   10e6c:	00011014 	andeq	r1, r1, r4, lsl r0
   10e70:	00011014 	andeq	r1, r1, r4, lsl r0
   10e74:	00011014 	andeq	r1, r1, r4, lsl r0
   10e78:	00011014 	andeq	r1, r1, r4, lsl r0
   10e7c:	00011014 	andeq	r1, r1, r4, lsl r0
   10e80:	00011014 	andeq	r1, r1, r4, lsl r0
   10e84:	00010fd8 	ldrdeq	r0, [r1], -r8
   10e88:	00011014 	andeq	r1, r1, r4, lsl r0
   10e8c:	00011014 	andeq	r1, r1, r4, lsl r0
   10e90:	00010fb4 			; <UNDEFINED> instruction: 0x00010fb4
   10e94:	00010fb4 			; <UNDEFINED> instruction: 0x00010fb4
   10e98:	00010fb4 			; <UNDEFINED> instruction: 0x00010fb4
   10e9c:	00010fb4 			; <UNDEFINED> instruction: 0x00010fb4
   10ea0:	00010fb4 			; <UNDEFINED> instruction: 0x00010fb4
   10ea4:	00010fb4 			; <UNDEFINED> instruction: 0x00010fb4
   10ea8:	00010fb4 			; <UNDEFINED> instruction: 0x00010fb4
   10eac:	00010fb4 			; <UNDEFINED> instruction: 0x00010fb4
   10eb0:	00010fb4 			; <UNDEFINED> instruction: 0x00010fb4
   10eb4:	00010fb4 			; <UNDEFINED> instruction: 0x00010fb4
   10eb8:	00011014 	andeq	r1, r1, r4, lsl r0
   10ebc:	00011014 	andeq	r1, r1, r4, lsl r0
   10ec0:	00011014 	andeq	r1, r1, r4, lsl r0
   10ec4:	00011014 	andeq	r1, r1, r4, lsl r0
   10ec8:	00011014 	andeq	r1, r1, r4, lsl r0
   10ecc:	00011014 	andeq	r1, r1, r4, lsl r0
   10ed0:	00011014 	andeq	r1, r1, r4, lsl r0
   10ed4:	00011014 	andeq	r1, r1, r4, lsl r0
   10ed8:	00011014 	andeq	r1, r1, r4, lsl r0
   10edc:	00011014 	andeq	r1, r1, r4, lsl r0
   10ee0:	00011014 	andeq	r1, r1, r4, lsl r0
   10ee4:	00011014 	andeq	r1, r1, r4, lsl r0
   10ee8:	00011014 	andeq	r1, r1, r4, lsl r0
   10eec:	00011014 	andeq	r1, r1, r4, lsl r0
   10ef0:	00011014 	andeq	r1, r1, r4, lsl r0
   10ef4:	00011014 	andeq	r1, r1, r4, lsl r0
   10ef8:	00011014 	andeq	r1, r1, r4, lsl r0
   10efc:	00011014 	andeq	r1, r1, r4, lsl r0
   10f00:	00011014 	andeq	r1, r1, r4, lsl r0
   10f04:	00011014 	andeq	r1, r1, r4, lsl r0
   10f08:	00011014 	andeq	r1, r1, r4, lsl r0
   10f0c:	00011014 	andeq	r1, r1, r4, lsl r0
   10f10:	00011014 	andeq	r1, r1, r4, lsl r0
   10f14:	00011014 	andeq	r1, r1, r4, lsl r0
   10f18:	00011014 	andeq	r1, r1, r4, lsl r0
   10f1c:	00011014 	andeq	r1, r1, r4, lsl r0
   10f20:	00011014 	andeq	r1, r1, r4, lsl r0
   10f24:	00011014 	andeq	r1, r1, r4, lsl r0
   10f28:	00011014 	andeq	r1, r1, r4, lsl r0
   10f2c:	00011014 	andeq	r1, r1, r4, lsl r0
   10f30:	00011014 	andeq	r1, r1, r4, lsl r0
   10f34:	00011014 	andeq	r1, r1, r4, lsl r0
   10f38:	00011014 	andeq	r1, r1, r4, lsl r0
   10f3c:	00011014 	andeq	r1, r1, r4, lsl r0
   10f40:	00011014 	andeq	r1, r1, r4, lsl r0
   10f44:	00011014 	andeq	r1, r1, r4, lsl r0
   10f48:	00011014 	andeq	r1, r1, r4, lsl r0
   10f4c:	00011014 	andeq	r1, r1, r4, lsl r0
   10f50:	00011014 	andeq	r1, r1, r4, lsl r0
   10f54:	00011014 	andeq	r1, r1, r4, lsl r0
   10f58:	00011014 	andeq	r1, r1, r4, lsl r0
   10f5c:	00010fa8 	andeq	r0, r1, r8, lsr #31
   10f60:	00010fa8 	andeq	r0, r1, r8, lsr #31
   10f64:	00011014 	andeq	r1, r1, r4, lsl r0
   10f68:	00011014 	andeq	r1, r1, r4, lsl r0
   10f6c:	00011014 	andeq	r1, r1, r4, lsl r0
   10f70:	00010fa8 	andeq	r0, r1, r8, lsr #31
   10f74:	00011014 	andeq	r1, r1, r4, lsl r0
   10f78:	00011014 	andeq	r1, r1, r4, lsl r0
   10f7c:	00011014 	andeq	r1, r1, r4, lsl r0
   10f80:	00011014 	andeq	r1, r1, r4, lsl r0
   10f84:	00011014 	andeq	r1, r1, r4, lsl r0
   10f88:	00011014 	andeq	r1, r1, r4, lsl r0
   10f8c:	00011014 	andeq	r1, r1, r4, lsl r0
   10f90:	00011014 	andeq	r1, r1, r4, lsl r0
   10f94:	00011014 	andeq	r1, r1, r4, lsl r0
   10f98:	00011014 	andeq	r1, r1, r4, lsl r0
   10f9c:	00010fa8 	andeq	r0, r1, r8, lsr #31
   10fa0:	00011014 	andeq	r1, r1, r4, lsl r0
   10fa4:	00010fa8 	andeq	r0, r1, r8, lsr #31
   10fa8:	ebffff77 	bl	10d8c <_ZN12FormatParser12processParamEPKc>
   10fac:	e3a00001 	mov	r0, #1
   10fb0:	e8bd8010 	pop	{r4, pc}
   10fb4:	e3013038 	movw	r3, #4152	; 0x1038
   10fb8:	e2422030 	sub	r2, r2, #48	; 0x30
   10fbc:	e3403001 	movt	r3, #1
   10fc0:	e3a01000 	mov	r1, #0
   10fc4:	e5802014 	str	r2, [r0, #20]
   10fc8:	e5803000 	str	r3, [r0]
   10fcc:	e5801004 	str	r1, [r0, #4]
   10fd0:	e3a00001 	mov	r0, #1
   10fd4:	e8bd8010 	pop	{r4, pc}
   10fd8:	e3a03001 	mov	r3, #1
   10fdc:	e5803010 	str	r3, [r0, #16]
   10fe0:	e3a00001 	mov	r0, #1
   10fe4:	e8bd8010 	pop	{r4, pc}
   10fe8:	e590200c 	ldr	r2, [r0, #12]
   10fec:	e3003964 	movw	r3, #2404	; 0x964
   10ff0:	e3403001 	movt	r3, #1
   10ff4:	e3a0c000 	mov	ip, #0
   10ff8:	e2824001 	add	r4, r2, #1
   10ffc:	e580400c 	str	r4, [r0, #12]
   11000:	e5d11000 	ldrb	r1, [r1]
   11004:	e5c21000 	strb	r1, [r2]
   11008:	e8801008 	stm	r0, {r3, ip}
   1100c:	e3a00001 	mov	r0, #1
   11010:	e8bd8010 	pop	{r4, pc}
   11014:	e590100c 	ldr	r1, [r0, #12]
   11018:	e300395c 	movw	r3, #2396	; 0x95c
   1101c:	e3403001 	movt	r3, #1
   11020:	e3a02000 	mov	r2, #0
   11024:	e5c12000 	strb	r2, [r1]
   11028:	e5802004 	str	r2, [r0, #4]
   1102c:	e5803000 	str	r3, [r0]
   11030:	e3a00001 	mov	r0, #1
   11034:	e8bd8010 	pop	{r4, pc}

00011038 <_ZN12FormatParser10controlDigEPKc>:
   11038:	e92d4008 	push	{r3, lr}
   1103c:	e5d13000 	ldrb	r3, [r1]
   11040:	e2433030 	sub	r3, r3, #48	; 0x30
   11044:	e3530045 	cmp	r3, #69	; 0x45
   11048:	979ff103 	ldrls	pc, [pc, r3, lsl #2]
   1104c:	ea00004e 	b	1118c <_ZN12FormatParser10controlDigEPKc+0x154>
   11050:	00011174 	andeq	r1, r1, r4, ror r1
   11054:	00011174 	andeq	r1, r1, r4, ror r1
   11058:	00011174 	andeq	r1, r1, r4, ror r1
   1105c:	00011174 	andeq	r1, r1, r4, ror r1
   11060:	00011174 	andeq	r1, r1, r4, ror r1
   11064:	00011174 	andeq	r1, r1, r4, ror r1
   11068:	00011174 	andeq	r1, r1, r4, ror r1
   1106c:	00011174 	andeq	r1, r1, r4, ror r1
   11070:	00011174 	andeq	r1, r1, r4, ror r1
   11074:	00011174 	andeq	r1, r1, r4, ror r1
   11078:	0001118c 	andeq	r1, r1, ip, lsl #3
   1107c:	0001118c 	andeq	r1, r1, ip, lsl #3
   11080:	0001118c 	andeq	r1, r1, ip, lsl #3
   11084:	0001118c 	andeq	r1, r1, ip, lsl #3
   11088:	0001118c 	andeq	r1, r1, ip, lsl #3
   1108c:	0001118c 	andeq	r1, r1, ip, lsl #3
   11090:	0001118c 	andeq	r1, r1, ip, lsl #3
   11094:	0001118c 	andeq	r1, r1, ip, lsl #3
   11098:	0001118c 	andeq	r1, r1, ip, lsl #3
   1109c:	0001118c 	andeq	r1, r1, ip, lsl #3
   110a0:	0001118c 	andeq	r1, r1, ip, lsl #3
   110a4:	0001118c 	andeq	r1, r1, ip, lsl #3
   110a8:	0001118c 	andeq	r1, r1, ip, lsl #3
   110ac:	0001118c 	andeq	r1, r1, ip, lsl #3
   110b0:	0001118c 	andeq	r1, r1, ip, lsl #3
   110b4:	0001118c 	andeq	r1, r1, ip, lsl #3
   110b8:	0001118c 	andeq	r1, r1, ip, lsl #3
   110bc:	0001118c 	andeq	r1, r1, ip, lsl #3
   110c0:	0001118c 	andeq	r1, r1, ip, lsl #3
   110c4:	0001118c 	andeq	r1, r1, ip, lsl #3
   110c8:	0001118c 	andeq	r1, r1, ip, lsl #3
   110cc:	0001118c 	andeq	r1, r1, ip, lsl #3
   110d0:	0001118c 	andeq	r1, r1, ip, lsl #3
   110d4:	0001118c 	andeq	r1, r1, ip, lsl #3
   110d8:	0001118c 	andeq	r1, r1, ip, lsl #3
   110dc:	0001118c 	andeq	r1, r1, ip, lsl #3
   110e0:	0001118c 	andeq	r1, r1, ip, lsl #3
   110e4:	0001118c 	andeq	r1, r1, ip, lsl #3
   110e8:	0001118c 	andeq	r1, r1, ip, lsl #3
   110ec:	0001118c 	andeq	r1, r1, ip, lsl #3
   110f0:	0001118c 	andeq	r1, r1, ip, lsl #3
   110f4:	0001118c 	andeq	r1, r1, ip, lsl #3
   110f8:	0001118c 	andeq	r1, r1, ip, lsl #3
   110fc:	0001118c 	andeq	r1, r1, ip, lsl #3
   11100:	0001118c 	andeq	r1, r1, ip, lsl #3
   11104:	0001118c 	andeq	r1, r1, ip, lsl #3
   11108:	0001118c 	andeq	r1, r1, ip, lsl #3
   1110c:	0001118c 	andeq	r1, r1, ip, lsl #3
   11110:	0001118c 	andeq	r1, r1, ip, lsl #3
   11114:	0001118c 	andeq	r1, r1, ip, lsl #3
   11118:	0001118c 	andeq	r1, r1, ip, lsl #3
   1111c:	00011168 	andeq	r1, r1, r8, ror #2
   11120:	00011168 	andeq	r1, r1, r8, ror #2
   11124:	0001118c 	andeq	r1, r1, ip, lsl #3
   11128:	0001118c 	andeq	r1, r1, ip, lsl #3
   1112c:	0001118c 	andeq	r1, r1, ip, lsl #3
   11130:	00011168 	andeq	r1, r1, r8, ror #2
   11134:	0001118c 	andeq	r1, r1, ip, lsl #3
   11138:	0001118c 	andeq	r1, r1, ip, lsl #3
   1113c:	0001118c 	andeq	r1, r1, ip, lsl #3
   11140:	0001118c 	andeq	r1, r1, ip, lsl #3
   11144:	0001118c 	andeq	r1, r1, ip, lsl #3
   11148:	0001118c 	andeq	r1, r1, ip, lsl #3
   1114c:	0001118c 	andeq	r1, r1, ip, lsl #3
   11150:	0001118c 	andeq	r1, r1, ip, lsl #3
   11154:	0001118c 	andeq	r1, r1, ip, lsl #3
   11158:	0001118c 	andeq	r1, r1, ip, lsl #3
   1115c:	00011168 	andeq	r1, r1, r8, ror #2
   11160:	0001118c 	andeq	r1, r1, ip, lsl #3
   11164:	00011168 	andeq	r1, r1, r8, ror #2
   11168:	ebffff07 	bl	10d8c <_ZN12FormatParser12processParamEPKc>
   1116c:	e3a00001 	mov	r0, #1
   11170:	e8bd8008 	pop	{r3, pc}
   11174:	e5902014 	ldr	r2, [r0, #20]
   11178:	e0822102 	add	r2, r2, r2, lsl #2
   1117c:	e0833082 	add	r3, r3, r2, lsl #1
   11180:	e5803014 	str	r3, [r0, #20]
   11184:	e3a00001 	mov	r0, #1
   11188:	e8bd8008 	pop	{r3, pc}
   1118c:	e590100c 	ldr	r1, [r0, #12]
   11190:	e300395c 	movw	r3, #2396	; 0x95c
   11194:	e3403001 	movt	r3, #1
   11198:	e3a02000 	mov	r2, #0
   1119c:	e5c12000 	strb	r2, [r1]
   111a0:	e5802004 	str	r2, [r0, #4]
   111a4:	e5803000 	str	r3, [r0]
   111a8:	e3a00001 	mov	r0, #1
   111ac:	e8bd8008 	pop	{r3, pc}

000111b0 <__aeabi_uidiv>:
   111b0:	e2512001 	subs	r2, r1, #1
   111b4:	012fff1e 	bxeq	lr
   111b8:	3a000036 	bcc	11298 <__aeabi_uidiv+0xe8>
   111bc:	e1500001 	cmp	r0, r1
   111c0:	9a000022 	bls	11250 <__aeabi_uidiv+0xa0>
   111c4:	e1110002 	tst	r1, r2
   111c8:	0a000023 	beq	1125c <__aeabi_uidiv+0xac>
   111cc:	e311020e 	tst	r1, #-536870912	; 0xe0000000
   111d0:	01a01181 	lsleq	r1, r1, #3
   111d4:	03a03008 	moveq	r3, #8
   111d8:	13a03001 	movne	r3, #1
   111dc:	e3510201 	cmp	r1, #268435456	; 0x10000000
   111e0:	31510000 	cmpcc	r1, r0
   111e4:	31a01201 	lslcc	r1, r1, #4
   111e8:	31a03203 	lslcc	r3, r3, #4
   111ec:	3afffffa 	bcc	111dc <__aeabi_uidiv+0x2c>
   111f0:	e3510102 	cmp	r1, #-2147483648	; 0x80000000
   111f4:	31510000 	cmpcc	r1, r0
   111f8:	31a01081 	lslcc	r1, r1, #1
   111fc:	31a03083 	lslcc	r3, r3, #1
   11200:	3afffffa 	bcc	111f0 <__aeabi_uidiv+0x40>
   11204:	e3a02000 	mov	r2, #0
   11208:	e1500001 	cmp	r0, r1
   1120c:	20400001 	subcs	r0, r0, r1
   11210:	21822003 	orrcs	r2, r2, r3
   11214:	e15000a1 	cmp	r0, r1, lsr #1
   11218:	204000a1 	subcs	r0, r0, r1, lsr #1
   1121c:	218220a3 	orrcs	r2, r2, r3, lsr #1
   11220:	e1500121 	cmp	r0, r1, lsr #2
   11224:	20400121 	subcs	r0, r0, r1, lsr #2
   11228:	21822123 	orrcs	r2, r2, r3, lsr #2
   1122c:	e15001a1 	cmp	r0, r1, lsr #3
   11230:	204001a1 	subcs	r0, r0, r1, lsr #3
   11234:	218221a3 	orrcs	r2, r2, r3, lsr #3
   11238:	e3500000 	cmp	r0, #0
   1123c:	11b03223 	lsrsne	r3, r3, #4
   11240:	11a01221 	lsrne	r1, r1, #4
   11244:	1affffef 	bne	11208 <__aeabi_uidiv+0x58>
   11248:	e1a00002 	mov	r0, r2
   1124c:	e12fff1e 	bx	lr
   11250:	03a00001 	moveq	r0, #1
   11254:	13a00000 	movne	r0, #0
   11258:	e12fff1e 	bx	lr
   1125c:	e3510801 	cmp	r1, #65536	; 0x10000
   11260:	21a01821 	lsrcs	r1, r1, #16
   11264:	23a02010 	movcs	r2, #16
   11268:	33a02000 	movcc	r2, #0
   1126c:	e3510c01 	cmp	r1, #256	; 0x100
   11270:	21a01421 	lsrcs	r1, r1, #8
   11274:	22822008 	addcs	r2, r2, #8
   11278:	e3510010 	cmp	r1, #16
   1127c:	21a01221 	lsrcs	r1, r1, #4
   11280:	22822004 	addcs	r2, r2, #4
   11284:	e3510004 	cmp	r1, #4
   11288:	82822003 	addhi	r2, r2, #3
   1128c:	908220a1 	addls	r2, r2, r1, lsr #1
   11290:	e1a00230 	lsr	r0, r0, r2
   11294:	e12fff1e 	bx	lr
   11298:	e3500000 	cmp	r0, #0
   1129c:	13e00000 	mvnne	r0, #0
   112a0:	ea000007 	b	112c4 <__aeabi_idiv0>

000112a4 <__aeabi_uidivmod>:
   112a4:	e3510000 	cmp	r1, #0
   112a8:	0afffffa 	beq	11298 <__aeabi_uidiv+0xe8>
   112ac:	e92d4003 	push	{r0, r1, lr}
   112b0:	ebffffbe 	bl	111b0 <__aeabi_uidiv>
   112b4:	e8bd4006 	pop	{r1, r2, lr}
   112b8:	e0030092 	mul	r3, r2, r0
   112bc:	e0411003 	sub	r1, r1, r3
   112c0:	e12fff1e 	bx	lr

000112c4 <__aeabi_idiv0>:
   112c4:	e12fff1e 	bx	lr

Disassembly of section .rodata.str1.4:

000112c8 <.rodata.str1.4>:
   112c8:	6f4c0d0a 	svcvs	0x004c0d0a
   112cc:	62616461 	rsbvs	r6, r1, #1627389952	; 0x61000000
   112d0:	6120656c 	teqvs	r0, ip, ror #10
   112d4:	696c7070 	stmdbvs	ip!, {r4, r5, r6, ip, sp, lr}^
   112d8:	69746163 	ldmdbvs	r4!, {r0, r1, r5, r6, r8, sp, lr}^
   112dc:	0d0a6e6f 	stceq	14, cr6, [sl, #-444]	; 0xfffffe44
   112e0:	00000000 	andeq	r0, r0, r0
   112e4:	202d2d2d 	eorcs	r2, sp, sp, lsr #26
   112e8:	72617453 	rsbvc	r7, r1, #1392508928	; 0x53000000
   112ec:	2d2d2074 	stccs	0, cr2, [sp, #-464]!	; 0xfffffe30
   112f0:	000d0a2d 	andeq	r0, sp, sp, lsr #20
   112f4:	74203e2d 	strtvc	r3, [r0], #-3629	; 0xe2d
   112f8:	206b6369 	rsbcs	r6, fp, r9, ror #6
   112fc:	20642523 	rsbcs	r2, r4, r3, lsr #10
   11300:	253d5053 	ldrcs	r5, [sp, #-83]!	; 0x53
   11304:	000d0a68 	andeq	r0, sp, r8, ror #20
   11308:	20296825 	eorcs	r6, r9, r5, lsr #16
   1130c:	0a0d6825 	beq	36b3a8 <_ZZ21irq_handler_arm_timerE3tic+0x349dac>
   11310:	00000000 	andeq	r0, r0, r0
   11314:	656d6974 	strbvs	r6, [sp, #-2420]!	; 0x974
   11318:	69742072 	ldmdbvs	r4!, {r1, r4, r5, r6, sp}^
   1131c:	23206b63 	teqcs	r0, #101376	; 0x18c00
   11320:	0d0a6425 	cfstrseq	mvf6, [sl, #-148]	; 0xffffff6c
   11324:	00000000 	andeq	r0, r0, r0

Disassembly of section .rodata:

00011328 <_ZZ11intToStringPciicE6digits>:
   11328:	33323130 	teqcc	r2, #48, 2
   1132c:	37363534 			; <UNDEFINED> instruction: 0x37363534
   11330:	42413938 	submi	r3, r1, #56, 18	; 0xe0000
   11334:	46454443 	strbmi	r4, [r5], -r3, asr #8

Disassembly of section .data:

00011338 <pSYS_TIMER_CMP_1>:
   11338:	3f003010 	svccc	0x00003010

0001133c <pSYS_TIMER_COUNT_LO>:
   1133c:	3f003004 	svccc	0x00003004

00011340 <pSYS_TIMER_CNTRL_STAT>:
   11340:	3f003000 	svccc	0x00003000

00011344 <pENABLE_IRQ_1>:
   11344:	3f00b210 	svccc	0x0000b210

00011348 <pARM_TIMER_LD>:
   11348:	3f00b400 	svccc	0x0000b400

0001134c <pARM_TIMER_CTL>:
   1134c:	3f00b408 	svccc	0x0000b408

00011350 <pARM_TIMER_PDIV>:
   11350:	3f00b41c 	svccc	0x0000b41c

00011354 <pENABLE_IRQ_B>:
   11354:	3f00b218 	svccc	0x0000b218

00011358 <_ZN4Gpio7pGPFSELE>:
   11358:	3f200000 	svccc	0x00200000

0001135c <_ZN4Gpio6pGPCLRE>:
   1135c:	3f200028 	svccc	0x00200028

00011360 <_ZN4Gpio6pGPSETE>:
   11360:	3f20001c 	svccc	0x0020001c

00011364 <pAUX_MU_STAT_REG>:
   11364:	3f215064 	svccc	0x00215064

00011368 <pAUX_MU_IO_REG>:
   11368:	3f215040 	svccc	0x00215040

0001136c <pAUX_MU_IER_REG>:
   1136c:	3f215044 	svccc	0x00215044

00011370 <pDISABLE_IRQ_1>:
   11370:	3f00b21c 	svccc	0x0000b21c

00011374 <pAUX_ENABLES>:
   11374:	3f215004 	svccc	0x00215004

00011378 <pAUX_MU_CNTL_REG>:
   11378:	3f215060 	svccc	0x00215060

0001137c <pAUX_MU_LCR_REG>:
   1137c:	3f21504c 	svccc	0x0021504c

00011380 <pAUX_MU_MCR_REG>:
   11380:	3f215050 	svccc	0x00215050

00011384 <pAUX_MU_IIR_REG>:
   11384:	3f215048 	svccc	0x00215048

00011388 <pAUX_MU_BAUD_REG>:
   11388:	3f215068 	svccc	0x00215068

0001138c <_ZN4Gpio6pGPPUDE>:
   1138c:	3f200094 	svccc	0x00200094

00011390 <_ZN4Gpio9pGPPUDCLKE>:
   11390:	3f200098 	svccc	0x00200098

00011394 <pPENDING_IRQ_B>:
   11394:	3f00b200 	svccc	0x0000b200

00011398 <pARM_TIMER_IRQ>:
   11398:	3f00b40c 	svccc	0x0000b40c

0001139c <pPENDING_IRQ_1>:
   1139c:	3f00b204 	svccc	0x0000b204

000113a0 <mailbox>:
   113a0:	3f00b880 	svccc	0x0000b880

000113a4 <pSYS_TIMER_CMP_3>:
   113a4:	3f003018 	svccc	0x00003018

000113a8 <pSYS_TIMER_CMP_2>:
   113a8:	3f003014 	svccc	0x00003014

000113ac <pSYS_TIMER_CMP_0>:
   113ac:	3f00300c 	svccc	0x0000300c

000113b0 <pSYS_TIMER_COUNT_HI>:
   113b0:	3f003008 	svccc	0x00003008

000113b4 <pAUX_MU_SCRATCH>:
   113b4:	3f21505c 	svccc	0x0021505c

000113b8 <pAUX_MU_MSR_REG>:
   113b8:	3f215058 	svccc	0x00215058

000113bc <pAUX_MU_LSR_REG>:
   113bc:	3f215054 	svccc	0x00215054

000113c0 <pAUX_IRQ>:
   113c0:	3f215000 	svccc	0x00215000

000113c4 <pARM_TIMER_CNT>:
   113c4:	3f00b420 	svccc	0x0000b420

000113c8 <pARM_TIMER_RLD>:
   113c8:	3f00b418 	svccc	0x0000b418

000113cc <pARM_TIMER_MSK_IRQ>:
   113cc:	3f00b414 	svccc	0x0000b414

000113d0 <pARM_TIMER_RAW_IRQ>:
   113d0:	3f00b410 	svccc	0x0000b410

000113d4 <pARM_TIMER_VAL>:
   113d4:	3f00b404 	svccc	0x0000b404

000113d8 <pDISABLE_IRQ_B>:
   113d8:	3f00b224 	svccc	0x0000b224

000113dc <pDISABLE_IRQ_2>:
   113dc:	3f00b220 	svccc	0x0000b220

000113e0 <pENABLE_IRQ_2>:
   113e0:	3f00b214 	svccc	0x0000b214

000113e4 <pPENDING_IRQ_2>:
   113e4:	3f00b208 	svccc	0x0000b208

000113e8 <_ZN4Gpio6pGPLEVE>:
   113e8:	3f200034 	svccc	0x00200034

Disassembly of section .init_array:

000113ec <.init_array>:
   113ec:	000101d8 	ldrdeq	r0, [r1], -r8

Disassembly of section .bss:

000113f0 <fp>:
	...

0001140c <out>:
	...

000114d4 <gpio47>:
   114d4:	00000000 	andeq	r0, r0, r0

000114d8 <gpio10>:
   114d8:	00000000 	andeq	r0, r0, r0

000114dc <gpio22>:
   114dc:	00000000 	andeq	r0, r0, r0

000114e0 <txhead>:
   114e0:	00000000 	andeq	r0, r0, r0

000114e4 <txbuffer>:
	...

00021494 <.LANCHOR2>:
	...

000214e4 <flag>:
   214e4:	00000000 	andeq	r0, r0, r0

000214e8 <txtail>:
   214e8:	00000000 	andeq	r0, r0, r0

000214ec <rxtail>:
   214ec:	00000000 	andeq	r0, r0, r0

000214f0 <rxhead>:
   214f0:	00000000 	andeq	r0, r0, r0

000214f4 <rxbuffer>:
	...

000215f4 <dump_pointer_storage>:
   215f4:	00000000 	andeq	r0, r0, r0

000215f8 <dump_pointer>:
   215f8:	00000000 	andeq	r0, r0, r0

000215fc <_ZZ21irq_handler_arm_timerE3tic>:
   215fc:	00000000 	andeq	r0, r0, r0

Disassembly of section .ARM.attributes:

00000000 <.ARM.attributes>:
   0:	00003241 	andeq	r3, r0, r1, asr #4
   4:	61656100 	cmnvs	r5, r0, lsl #2
   8:	01006962 	tsteq	r0, r2, ror #18
   c:	00000028 	andeq	r0, r0, r8, lsr #32
  10:	412d3705 	teqmi	sp, r5, lsl #14
  14:	070a0600 	streq	r0, [sl, -r0, lsl #12]
  18:	09010841 	stmdbeq	r1, {r0, r6, fp}
  1c:	0c050a02 	stceq	10, cr0, [r5], {2}
  20:	14041202 	strne	r1, [r4], #-514	; 0x202
  24:	17011501 	strne	r1, [r1, -r1, lsl #10]
  28:	1a011803 	bne	4603c <_ZZ21irq_handler_arm_timerE3tic+0x24a40>
  2c:	1c031b01 	stcne	11, cr1, [r3], {1}
  30:	Address 0x0000000000000030 is out of bounds.


Disassembly of section .comment:

00000000 <.comment>:
   0:	3a434347 	bcc	10d0d24 <_ZZ21irq_handler_arm_timerE3tic+0x10af728>
   4:	4e472820 	cdpmi	8, 4, cr2, cr7, cr0, {1}
   8:	6f542055 	svcvs	0x00542055
   c:	20736c6f 	rsbscs	r6, r3, pc, ror #24
  10:	20726f66 	rsbscs	r6, r2, r6, ror #30
  14:	204d5241 	subcs	r5, sp, r1, asr #4
  18:	65626d45 	strbvs	r6, [r2, #-3397]!	; 0xd45
  1c:	64656464 	strbtvs	r6, [r5], #-1124	; 0x464
  20:	6f725020 	svcvs	0x00725020
  24:	73736563 	cmnvc	r3, #415236096	; 0x18c00000
  28:	2973726f 	ldmdbcs	r3!, {r0, r1, r2, r3, r5, r6, r9, ip, sp, lr}^
  2c:	382e3420 	stmdacc	lr!, {r5, sl, ip, sp}
  30:	3220332e 	eorcc	r3, r0, #-1207959552	; 0xb8000000
  34:	30343130 	eorscc	r3, r4, r0, lsr r1
  38:	20383232 	eorscs	r3, r8, r2, lsr r2
  3c:	6c657228 	sfmvs	f7, 2, [r5], #-160	; 0xffffff60
  40:	65736165 	ldrbvs	r6, [r3, #-357]!	; 0x165
  44:	415b2029 	cmpmi	fp, r9, lsr #32
  48:	652f4d52 	strvs	r4, [pc, #-3410]!	; fffff2fe <_ZZ21irq_handler_arm_timerE3tic+0xfffddd02>
  4c:	6465626d 	strbtvs	r6, [r5], #-621	; 0x26d
  50:	2d646564 	cfstr64cs	mvdx6, [r4, #-400]!	; 0xfffffe70
  54:	2d385f34 	ldccs	15, cr5, [r8, #-208]!	; 0xffffff30
  58:	6e617262 	cdpvs	2, 6, cr7, cr1, cr2, {3}
  5c:	72206863 	eorvc	r6, r0, #6488064	; 0x630000
  60:	73697665 	cmnvc	r9, #105906176	; 0x6500000
  64:	206e6f69 	rsbcs	r6, lr, r9, ror #30
  68:	33383032 	teqcc	r8, #50	; 0x32
  6c:	005d3232 	subseq	r3, sp, r2, lsr r2

Disassembly of section .debug_frame:

00000000 <.debug_frame>:
   0:	0000000c 	andeq	r0, r0, ip
   4:	ffffffff 			; <UNDEFINED> instruction: 0xffffffff
   8:	7c010001 	stcvc	0, cr0, [r1], {1}
   c:	000d0c0e 	andeq	r0, sp, lr, lsl #24
  10:	0000000c 	andeq	r0, r0, ip
  14:	00000000 	andeq	r0, r0, r0
  18:	000111b0 			; <UNDEFINED> instruction: 0x000111b0
  1c:	000000f4 	strdeq	r0, [r0], -r4
